/* AICA ARM7 Sound Driver — AM2 Sequencer 1.33 00/05/02 Y.Takeda
 * Source: ic9 @ 0xDBC000, size 30396 bytes
 * Loaded into AICA wave RAM at 0x00000000 by SH-4 boot.
 * Full disassembly generated by arm-none-eabi-objdump.
 * Code sections: 0x0000-0x0c50 confirmed.  0x7300-0x739c = data.
 */

.arch armv4
.cpu arm7tdmi
.section .text


Disassembly of section .data:

00000000 <.data>:
/* === AICA ARM7 Driver — AM2 Sequencer 1.33 (Y.Takeda 2000-05-02) ===
 * Source: ic9 @ 0xDBC000, 30396 bytes
 * Loaded into AICA wave RAM starting at 0x00000000
 */
       0:	eaffffb7 	b	0xfffffee4
       4:	e59c10c4 	ldr	r1, [ip, #196]	@ 0xc4
       8:	e3510001 	cmp	r1, #1
       c:	0a000006 	beq	0x2c
      10:	e3510002 	cmp	r1, #2
      14:	0a00000b 	beq	0x48
      18:	e3510003 	cmp	r1, #3
      1c:	0a00000d 	beq	0x58
      20:	e3510004 	cmp	r1, #4
      24:	0a000012 	beq	0x74
      28:	eaffffad 	b	0xfffffee4
      2c:	e5cc00c2 	strb	r0, [ip, #194]	@ 0xc2
      30:	e3a00000 	mov	r0, #0
      34:	e5cc00c1 	strb	r0, [ip, #193]	@ 0xc1
      38:	e92d8000 	stmfd	sp!, {pc}
      3c:	e1a00000 	nop			@ (mov r0, r0)
      40:	ea00000c 	b	0x78
      44:	eaffffa6 	b	0xfffffee4
      48:	e5cc00c2 	strb	r0, [ip, #194]	@ 0xc2
      4c:	e3a00003 	mov	r0, #3
      50:	e58c00c4 	str	r0, [ip, #196]	@ 0xc4
      54:	eaffffa2 	b	0xfffffee4
      58:	e5cc00c1 	strb	r0, [ip, #193]	@ 0xc1
      5c:	e92d8000 	stmfd	sp!, {pc}
      60:	e1a00000 	nop			@ (mov r0, r0)
      64:	ea000003 	b	0x78
      68:	e3a00002 	mov	r0, #2
      6c:	e58c00c4 	str	r0, [ip, #196]	@ 0xc4
      70:	eaffff9b 	b	0xfffffee4
      74:	eaffff9a 	b	0xfffffee4
      78:	e5dc0004 	ldrb	r0, [ip, #4]
      7c:	e5cc00c0 	strb	r0, [ip, #192]	@ 0xc0
      80:	e59c00c0 	ldr	r0, [ip, #192]	@ 0xc0
      84:	e92d8000 	stmfd	sp!, {pc}
      88:	e1a00000 	nop			@ (mov r0, r0)
      8c:	ea000712 	b	0x1cdc
      90:	e8bd8000 	ldmfd	sp!, {pc}
      94:	e10f0000 	mrs	r0, CPSR
      98:	e38000c0 	orr	r0, r0, #192	@ 0xc0
      9c:	e129f000 	msr	CPSR_fc, r0
      a0:	e59c1020 	ldr	r1, [ip, #32]
      a4:	e1b01001 	movs	r1, r1
      a8:	12411001 	subne	r1, r1, #1
      ac:	158c1020 	strne	r1, [ip, #32]
      b0:	e10f0000 	mrs	r0, CPSR
      b4:	e3c000c0 	bic	r0, r0, #192	@ 0xc0
      b8:	e129f000 	msr	CPSR_fc, r0
      bc:	0a000009 	beq	0xe8
      c0:	e59fb1a8 	ldr	fp, [pc, #424]	@ 0x270
      c4:	e5dc0025 	ldrb	r0, [ip, #37]	@ 0x25
      c8:	e2801008 	add	r1, r0, #8
      cc:	e5cc1025 	strb	r1, [ip, #37]	@ 0x25
      d0:	e200003f 	and	r0, r0, #63	@ 0x3f
      d4:	ea000004 	b	0xec
      d8:	e5dc0030 	ldrb	r0, [ip, #48]	@ 0x30
      dc:	e2500001 	subs	r0, r0, #1
      e0:	e5cc0030 	strb	r0, [ip, #48]	@ 0x30
      e4:	0a00002e 	beq	0x1a4
      e8:	e8bd8000 	ldmfd	sp!, {pc}
      ec:	e1a01000 	mov	r1, r0
      f0:	e1a00380 	lsl	r0, r0, #7
      f4:	e3a08502 	mov	r8, #8388608	@ 0x800000
      f8:	e0888000 	add	r8, r8, r0
      fc:	e1a01301 	lsl	r1, r1, #6
     100:	e59f9178 	ldr	r9, [pc, #376]	@ 0x280
     104:	e0899001 	add	r9, r9, r1
     108:	e92d8000 	stmfd	sp!, {pc}
     10c:	e1a00000 	nop			@ (mov r0, r0)
     110:	ea000035 	b	0x1ec
     114:	e2888080 	add	r8, r8, #128	@ 0x80
     118:	e2899040 	add	r9, r9, #64	@ 0x40
     11c:	e92d8000 	stmfd	sp!, {pc}
     120:	e1a00000 	nop			@ (mov r0, r0)
     124:	ea000030 	b	0x1ec
     128:	e2888080 	add	r8, r8, #128	@ 0x80
     12c:	e2899040 	add	r9, r9, #64	@ 0x40
     130:	e92d8000 	stmfd	sp!, {pc}
     134:	e1a00000 	nop			@ (mov r0, r0)
     138:	ea00002b 	b	0x1ec
     13c:	e2888080 	add	r8, r8, #128	@ 0x80
     140:	e2899040 	add	r9, r9, #64	@ 0x40
     144:	e92d8000 	stmfd	sp!, {pc}
     148:	e1a00000 	nop			@ (mov r0, r0)
     14c:	ea000026 	b	0x1ec
     150:	e2888080 	add	r8, r8, #128	@ 0x80
     154:	e2899040 	add	r9, r9, #64	@ 0x40
     158:	e92d8000 	stmfd	sp!, {pc}
     15c:	e1a00000 	nop			@ (mov r0, r0)
     160:	ea000021 	b	0x1ec
     164:	e2888080 	add	r8, r8, #128	@ 0x80
     168:	e2899040 	add	r9, r9, #64	@ 0x40
     16c:	e92d8000 	stmfd	sp!, {pc}
     170:	e1a00000 	nop			@ (mov r0, r0)
     174:	ea00001c 	b	0x1ec
     178:	e2888080 	add	r8, r8, #128	@ 0x80
     17c:	e2899040 	add	r9, r9, #64	@ 0x40
     180:	e92d8000 	stmfd	sp!, {pc}
     184:	e1a00000 	nop			@ (mov r0, r0)
     188:	ea000017 	b	0x1ec
     18c:	e2888080 	add	r8, r8, #128	@ 0x80
     190:	e2899040 	add	r9, r9, #64	@ 0x40
     194:	e92d8000 	stmfd	sp!, {pc}
     198:	e1a00000 	nop			@ (mov r0, r0)
     19c:	ea000012 	b	0x1ec
     1a0:	eaffffcc 	b	0xd8
     1a4:	e3a00019 	mov	r0, #25
     1a8:	e5cc0030 	strb	r0, [ip, #48]	@ 0x30
     1ac:	e5dc0031 	ldrb	r0, [ip, #49]	@ 0x31
     1b0:	e2500001 	subs	r0, r0, #1
     1b4:	e5cc0031 	strb	r0, [ip, #49]	@ 0x31
     1b8:	0a000004 	beq	0x1d0
     1bc:	e5dc0100 	ldrb	r0, [ip, #256]	@ 0x100
     1c0:	e5dc1007 	ldrb	r1, [ip, #7]
     1c4:	e1500001 	cmp	r0, r1
     1c8:	85cc0007 	strbhi	r0, [ip, #7]
     1cc:	ea000005 	b	0x1e8
     1d0:	e3a0000a 	mov	r0, #10
     1d4:	e5cc0031 	strb	r0, [ip, #49]	@ 0x31
     1d8:	e5dc0007 	ldrb	r0, [ip, #7]
     1dc:	e58b00b8 	str	r0, [fp, #184]	@ 0xb8
     1e0:	e3a00000 	mov	r0, #0
     1e4:	e5cc0007 	strb	r0, [ip, #7]
     1e8:	eaffffbe 	b	0xe8
     1ec:	e5d90000 	ldrb	r0, [r9]
     1f0:	e3100080 	tst	r0, #128	@ 0x80
     1f4:	0a000008 	beq	0x21c
     1f8:	e92d0c00 	push	{sl, fp}
     1fc:	e5d90009 	ldrb	r0, [r9, #9]
     200:	e1a00300 	lsl	r0, r0, #6
     204:	e59fb078 	ldr	fp, [pc, #120]	@ 0x284
     208:	e08bb000 	add	fp, fp, r0
     20c:	e92d8000 	stmfd	sp!, {pc}
     210:	e1a00000 	nop			@ (mov r0, r0)
     214:	ea000001 	b	0x220
     218:	e8bd0c00 	pop	{sl, fp}
     21c:	e8bd8000 	ldmfd	sp!, {pc}
     220:	e5990030 	ldr	r0, [r9, #48]	@ 0x30
     224:	e59b1018 	ldr	r1, [fp, #24]
     228:	e2004102 	and	r4, r0, #-2147483648	@ 0x80000000
     22c:	e0400001 	sub	r0, r0, r1
     230:	e2003102 	and	r3, r0, #-2147483648	@ 0x80000000
     234:	e0333004 	eors	r3, r3, r4
     238:	13a00000 	movne	r0, #0
     23c:	e5890030 	str	r0, [r9, #48]	@ 0x30
     240:	e1a06009 	mov	r6, r9
     244:	e1a07008 	mov	r7, r8
     248:	e92d8000 	stmfd	sp!, {pc}
     24c:	e1a00000 	nop			@ (mov r0, r0)
     250:	ea0004c9 	b	0x157c
     254:	e8bd8000 	ldmfd	sp!, {pc}
     258:	e10f0000 	mrs	r0, CPSR
     25c:	e38000c0 	orr	r0, r0, #192	@ 0xc0
     260:	e129f000 	msr	CPSR_fc, r0
     264:	e1a00000 	nop			@ (mov r0, r0)
     268:	e1a00000 	nop			@ (mov r0, r0)
     26c:	eafffffc 	b	0x264
     270:	00000040 	andeq	r0, r0, r0, asr #32
     274:	00802800 	addeq	r2, r0, r0, lsl #16
     278:	0000c200 	andeq	ip, r0, r0, lsl #4
     27c:	0000c200 	andeq	ip, r0, r0, lsl #4
     280:	0000d800 	andeq	sp, r0, r0, lsl #16
     284:	0000c800 	andeq	ip, r0, r0, lsl #16
     288:	e92d0f00 	push	{r8, r9, sl, fp}
     28c:	e59f8a48 	ldr	r8, [pc, #2632]	@ 0xcdc
     290:	e59f9a48 	ldr	r9, [pc, #2632]	@ 0xce0
     294:	e59ca080 	ldr	sl, [ip, #128]	@ 0x80
     298:	e3a0b000 	mov	fp, #0
     29c:	e3a00000 	mov	r0, #0
     2a0:	e58c0088 	str	r0, [ip, #136]	@ 0x88
     2a4:	e5980000 	ldr	r0, [r8]
     2a8:	e5991000 	ldr	r1, [r9]
     2ac:	e1500001 	cmp	r0, r1
     2b0:	1a00000a 	bne	0x2e0
     2b4:	e3700001 	cmn	r0, #1
     2b8:	0a000002 	beq	0x2c8
     2bc:	e92d8000 	stmfd	sp!, {pc}
     2c0:	e1a00000 	nop			@ (mov r0, r0)
     2c4:	ea00004b 	b	0x3f8
     2c8:	e2888004 	add	r8, r8, #4
     2cc:	e2899004 	add	r9, r9, #4
     2d0:	e28bb001 	add	fp, fp, #1
     2d4:	e35b0008 	cmp	fp, #8
     2d8:	1afffff1 	bne	0x2a4
     2dc:	ea000038 	b	0x3c4
     2e0:	e1a0000b 	mov	r0, fp
     2e4:	e1a00280 	lsl	r0, r0, #5
     2e8:	e59f79f4 	ldr	r7, [pc, #2548]	@ 0xce4
     2ec:	e0877000 	add	r7, r7, r0
     2f0:	e92d8000 	stmfd	sp!, {pc}
     2f4:	e1a00000 	nop			@ (mov r0, r0)
     2f8:	ea000044 	b	0x410
     2fc:	e5980000 	ldr	r0, [r8]
     300:	e3700001 	cmn	r0, #1
     304:	0affffef 	beq	0x2c8
     308:	e59a0000 	ldr	r0, [sl]
     30c:	e59f19d4 	ldr	r1, [pc, #2516]	@ 0xce8
     310:	e1500001 	cmp	r0, r1
     314:	1affffeb 	bne	0x2c8
     318:	e3a00001 	mov	r0, #1
     31c:	e1a00b10 	lsl	r0, r0, fp
     320:	e5c70005 	strb	r0, [r7, #5]
     324:	e587a000 	str	sl, [r7]
     328:	e1a0000b 	mov	r0, fp
     32c:	e1a00300 	lsl	r0, r0, #6
     330:	e59f19b4 	ldr	r1, [pc, #2484]	@ 0xcec
     334:	e0811000 	add	r1, r1, r0
     338:	e5871010 	str	r1, [r7, #16]
     33c:	e5dc001b 	ldrb	r0, [ip, #27]
     340:	e35000ff 	cmp	r0, #255	@ 0xff
     344:	1a000003 	bne	0x358
     348:	e3a00000 	mov	r0, #0
     34c:	e5cc001b 	strb	r0, [ip, #27]
     350:	e5da0013 	ldrb	r0, [sl, #19]
     354:	e5cc001a 	strb	r0, [ip, #26]
     358:	e59a0020 	ldr	r0, [sl, #32]
     35c:	e080000a 	add	r0, r0, sl
     360:	e5901002 	ldr	r1, [r0, #2]
     364:	e59f2984 	ldr	r2, [pc, #2436]	@ 0xcf0
     368:	e0111002 	ands	r1, r1, r2
     36c:	0a00000c 	beq	0x3a4
     370:	e0811000 	add	r1, r1, r0
     374:	e587100c 	str	r1, [r7, #12]
     378:	e5d11001 	ldrb	r1, [r1, #1]
     37c:	e35100ff 	cmp	r1, #255	@ 0xff
     380:	0a000000 	beq	0x388
     384:	e5c71015 	strb	r1, [r7, #21]
     388:	e92d0300 	push	{r8, r9}
     38c:	e5978010 	ldr	r8, [r7, #16]
     390:	e597900c 	ldr	r9, [r7, #12]
     394:	e92d8000 	stmfd	sp!, {pc}
     398:	e1a00000 	nop			@ (mov r0, r0)
     39c:	ea000055 	b	0x4f8
     3a0:	e8bd0300 	pop	{r8, r9}
     3a4:	e3a0007f 	mov	r0, #127	@ 0x7f
     3a8:	e5c70014 	strb	r0, [r7, #20]
     3ac:	e5da001a 	ldrb	r0, [sl, #26]
     3b0:	e5cc0114 	strb	r0, [ip, #276]	@ 0x114
     3b4:	e92d8000 	stmfd	sp!, {pc}
     3b8:	e1a00000 	nop			@ (mov r0, r0)
     3bc:	ea00000d 	b	0x3f8
     3c0:	eaffffc0 	b	0x2c8
     3c4:	e92d8000 	stmfd	sp!, {pc}
     3c8:	e1a00000 	nop			@ (mov r0, r0)
     3cc:	ea00016a 	b	0x97c
     3d0:	e3a00000 	mov	r0, #0
     3d4:	e5cc0000 	strb	r0, [ip]
     3d8:	e59f0914 	ldr	r0, [pc, #2324]	@ 0xcf4
     3dc:	e59f18fc 	ldr	r1, [pc, #2300]	@ 0xce0
     3e0:	e3a02020 	mov	r2, #32
     3e4:	e92d8000 	stmfd	sp!, {pc}
     3e8:	e1a00000 	nop			@ (mov r0, r0)
     3ec:	ea000600 	b	0x1bf4
     3f0:	e8bd0f00 	pop	{r8, r9, sl, fp}
     3f4:	e8bd8000 	ldmfd	sp!, {pc}
     3f8:	e59a0008 	ldr	r0, [sl, #8]
     3fc:	e59c1088 	ldr	r1, [ip, #136]	@ 0x88
     400:	e0811000 	add	r1, r1, r0
     404:	e58c1088 	str	r1, [ip, #136]	@ 0x88
     408:	e08aa000 	add	sl, sl, r0
     40c:	e8bd8000 	ldmfd	sp!, {pc}
     410:	e3a00000 	mov	r0, #0
     414:	e5870000 	str	r0, [r7]
     418:	e5870008 	str	r0, [r7, #8]
     41c:	e587000c 	str	r0, [r7, #12]
     420:	e5870010 	str	r0, [r7, #16]
     424:	e3a000ff 	mov	r0, #255	@ 0xff
     428:	e5c70004 	strb	r0, [r7, #4]
     42c:	e5c70005 	strb	r0, [r7, #5]
     430:	e5c70014 	strb	r0, [r7, #20]
     434:	e5c70015 	strb	r0, [r7, #21]
     438:	e5c70006 	strb	r0, [r7, #6]
     43c:	e8bd8000 	ldmfd	sp!, {pc}
     440:	e92d0f00 	push	{r8, r9, sl, fp}
     444:	e1a0000b 	mov	r0, fp
     448:	e1a00280 	lsl	r0, r0, #5
     44c:	e59f9890 	ldr	r9, [pc, #2192]	@ 0xce4
     450:	e0899000 	add	r9, r9, r0
     454:	e5998000 	ldr	r8, [r9]
     458:	e3580000 	cmp	r8, #0
     45c:	0a000023 	beq	0x4f0
     460:	e5987020 	ldr	r7, [r8, #32]
     464:	e0877008 	add	r7, r7, r8
     468:	e5d70000 	ldrb	r0, [r7]
     46c:	e15a0000 	cmp	sl, r0
     470:	2a00001e 	bcs	0x4f0
     474:	e1a0008a 	lsl	r0, sl, #1
     478:	e0800007 	add	r0, r0, r7
     47c:	e5900004 	ldr	r0, [r0, #4]
     480:	e59f1868 	ldr	r1, [pc, #2152]	@ 0xcf0
     484:	e0100001 	ands	r0, r0, r1
     488:	0a000018 	beq	0x4f0
     48c:	e0800007 	add	r0, r0, r7
     490:	e5890008 	str	r0, [r9, #8]
     494:	e5c9a004 	strb	sl, [r9, #4]
     498:	e5d01001 	ldrb	r1, [r0, #1]
     49c:	e35100ff 	cmp	r1, #255	@ 0xff
     4a0:	0a000000 	beq	0x4a8
     4a4:	e5c91014 	strb	r1, [r9, #20]
     4a8:	e1a0000b 	mov	r0, fp
     4ac:	e3a01001 	mov	r1, #1
     4b0:	e92d8000 	stmfd	sp!, {pc}
     4b4:	e1a00000 	nop			@ (mov r0, r0)
     4b8:	ea0001a2 	b	0xb48
     4bc:	e1a00009 	mov	r0, r9
     4c0:	e92d8000 	stmfd	sp!, {pc}
     4c4:	e1a00000 	nop			@ (mov r0, r0)
     4c8:	ea0001c4 	b	0xbe0
     4cc:	e92d8000 	stmfd	sp!, {pc}
     4d0:	e1a00000 	nop			@ (mov r0, r0)
     4d4:	ea0012eb 	b	0x5088
     4d8:	e1a07009 	mov	r7, r9
     4dc:	e5978010 	ldr	r8, [r7, #16]
     4e0:	e5979008 	ldr	r9, [r7, #8]
     4e4:	e92d8000 	stmfd	sp!, {pc}
     4e8:	e1a00000 	nop			@ (mov r0, r0)
     4ec:	ea000001 	b	0x4f8
     4f0:	e8bd0f00 	pop	{r8, r9, sl, fp}
     4f4:	e8bd8000 	ldmfd	sp!, {pc}
     4f8:	e92d0f80 	push	{r7, r8, r9, sl, fp}
     4fc:	e3590000 	cmp	r9, #0
     500:	0a000023 	beq	0x594
     504:	e3a0b000 	mov	fp, #0
     508:	e3a0a000 	mov	sl, #0
     50c:	e7d8000a 	ldrb	r0, [r8, sl]
     510:	e35000ff 	cmp	r0, #255	@ 0xff
     514:	0a000003 	beq	0x528
     518:	e28aa001 	add	sl, sl, #1
     51c:	e35a0004 	cmp	sl, #4
     520:	1afffff9 	bne	0x50c
     524:	ea000016 	b	0x584
     528:	e2895008 	add	r5, r9, #8
     52c:	e5d96000 	ldrb	r6, [r9]
     530:	e35600ff 	cmp	r6, #255	@ 0xff
     534:	0a000012 	beq	0x584
     538:	e5d50001 	ldrb	r0, [r5, #1]
     53c:	e200000f 	and	r0, r0, #15
     540:	e150000b 	cmp	r0, fp
     544:	1a00000b 	bne	0x578
     548:	e92d8000 	stmfd	sp!, {pc}
     54c:	e1a00000 	nop			@ (mov r0, r0)
     550:	ea000642 	b	0x1e60
     554:	0a00000e 	beq	0x594
     558:	e7c8000a 	strb	r0, [r8, sl]
     55c:	e28aa001 	add	sl, sl, #1
     560:	e1a00300 	lsl	r0, r0, #6
     564:	e59f478c 	ldr	r4, [pc, #1932]	@ 0xcf8
     568:	e0844000 	add	r4, r4, r0
     56c:	e92d8000 	stmfd	sp!, {pc}
     570:	e1a00000 	nop			@ (mov r0, r0)
     574:	ea000008 	b	0x59c
     578:	e2855020 	add	r5, r5, #32
     57c:	e2566001 	subs	r6, r6, #1
     580:	5affffec 	bpl	0x538
     584:	e2888004 	add	r8, r8, #4
     588:	e28bb001 	add	fp, fp, #1
     58c:	e35b0010 	cmp	fp, #16
     590:	1affffdc 	bne	0x508
     594:	e8bd0f80 	pop	{r7, r8, r9, sl, fp}
     598:	e8bd8000 	ldmfd	sp!, {pc}
     59c:	e1a00004 	mov	r0, r4
     5a0:	e3a01040 	mov	r1, #64	@ 0x40
     5a4:	e3a02000 	mov	r2, #0
     5a8:	e92d8000 	stmfd	sp!, {pc}
     5ac:	e1a00000 	nop			@ (mov r0, r0)
     5b0:	ea00059b 	b	0x1c24
     5b4:	e5950000 	ldr	r0, [r5]
     5b8:	e5840000 	str	r0, [r4]
     5bc:	e5950008 	ldr	r0, [r5, #8]
     5c0:	e5840008 	str	r0, [r4, #8]
     5c4:	e595000c 	ldr	r0, [r5, #12]
     5c8:	e584000c 	str	r0, [r4, #12]
     5cc:	e584501c 	str	r5, [r4, #28]
     5d0:	e3a00000 	mov	r0, #0
     5d4:	e5c40001 	strb	r0, [r4, #1]
     5d8:	e1a00007 	mov	r0, r7
     5dc:	e1a01005 	mov	r1, r5
     5e0:	e92d8000 	stmfd	sp!, {pc}
     5e4:	e1a00000 	nop			@ (mov r0, r0)
     5e8:	ea0006e6 	b	0x2188
     5ec:	e5840004 	str	r0, [r4, #4]
     5f0:	e1a00007 	mov	r0, r7
     5f4:	e1a01004 	mov	r1, r4
     5f8:	e92d8000 	stmfd	sp!, {pc}
     5fc:	e1a00000 	nop			@ (mov r0, r0)
     600:	ea0007f9 	b	0x25ec
     604:	e5c40010 	strb	r0, [r4, #16]
     608:	e1a00004 	mov	r0, r4
     60c:	e92d8000 	stmfd	sp!, {pc}
     610:	e1a00000 	nop			@ (mov r0, r0)
     614:	ea00072e 	b	0x22d4
     618:	e5943004 	ldr	r3, [r4, #4]
     61c:	e5d30002 	ldrb	r0, [r3, #2]
     620:	e5c40020 	strb	r0, [r4, #32]
     624:	e5d30003 	ldrb	r0, [r3, #3]
     628:	e5c40021 	strb	r0, [r4, #33]	@ 0x21
     62c:	e5d30004 	ldrb	r0, [r3, #4]
     630:	e5c40022 	strb	r0, [r4, #34]	@ 0x22
     634:	e5d30005 	ldrb	r0, [r3, #5]
     638:	e5c40023 	strb	r0, [r4, #35]	@ 0x23
     63c:	e8bd8000 	ldmfd	sp!, {pc}

/* --- Main sequencer loop (per-channel tick) @ 0x640 --- */
     640:	e92d0f00 	push	{r8, r9, sl, fp}
     644:	e3a08000 	mov	r8, #0
     648:	e59f9690 	ldr	r9, [pc, #1680]	@ 0xce0
     64c:	e59fa688 	ldr	sl, [pc, #1672]	@ 0xcdc
     650:	e5990000 	ldr	r0, [r9]
     654:	e59a1000 	ldr	r1, [sl]
     658:	e1500001 	cmp	r0, r1
     65c:	1a000005 	bne	0x678
     660:	e28aa004 	add	sl, sl, #4
     664:	e2899004 	add	r9, r9, #4
     668:	e2888001 	add	r8, r8, #1
     66c:	e3580008 	cmp	r8, #8
     670:	1afffff6 	bne	0x650
     674:	ea00002c 	b	0x72c
     678:	e5990000 	ldr	r0, [r9]
     67c:	e3700001 	cmn	r0, #1
     680:	0a000015 	beq	0x6dc
     684:	e59a1000 	ldr	r1, [sl]
     688:	e3710001 	cmn	r1, #1
     68c:	0a000012 	beq	0x6dc
     690:	e3a00000 	mov	r0, #0
     694:	e92d8000 	stmfd	sp!, {pc}
     698:	e1a00000 	nop			@ (mov r0, r0)
     69c:	ea0000fe 	b	0xa9c
     6a0:	e1a00008 	mov	r0, r8
     6a4:	e3a01003 	mov	r1, #3
     6a8:	e92d8000 	stmfd	sp!, {pc}
     6ac:	e1a00000 	nop			@ (mov r0, r0)
     6b0:	ea000124 	b	0xb48
     6b4:	e1a00008 	mov	r0, r8
     6b8:	e92d8000 	stmfd	sp!, {pc}
     6bc:	e1a00000 	nop			@ (mov r0, r0)
     6c0:	ea00010d 	b	0xafc
     6c4:	e28aa004 	add	sl, sl, #4
     6c8:	e2899004 	add	r9, r9, #4
     6cc:	e2888001 	add	r8, r8, #1
     6d0:	e3580008 	cmp	r8, #8
     6d4:	1affffdd 	bne	0x650
     6d8:	ea000013 	b	0x72c
     6dc:	e5990000 	ldr	r0, [r9]
     6e0:	e3700001 	cmn	r0, #1
     6e4:	0a00000c 	beq	0x71c
     6e8:	e3a00000 	mov	r0, #0
     6ec:	e92d8000 	stmfd	sp!, {pc}
     6f0:	e1a00000 	nop			@ (mov r0, r0)
     6f4:	ea0000e8 	b	0xa9c
     6f8:	e1a00008 	mov	r0, r8
     6fc:	e3a01003 	mov	r1, #3
     700:	e92d8000 	stmfd	sp!, {pc}
     704:	e1a00000 	nop			@ (mov r0, r0)
     708:	ea00010e 	b	0xb48
     70c:	e1a00008 	mov	r0, r8
     710:	e92d8000 	stmfd	sp!, {pc}
     714:	e1a00000 	nop			@ (mov r0, r0)
     718:	ea0000f7 	b	0xafc
     71c:	e2899004 	add	r9, r9, #4
     720:	e2888001 	add	r8, r8, #1
     724:	e3580008 	cmp	r8, #8
     728:	1affffeb 	bne	0x6dc
     72c:	e8bd0f00 	pop	{r8, r9, sl, fp}
     730:	e8bd8000 	ldmfd	sp!, {pc}

/* --- AICA hardware init: reset AICA DSP/mixer global registers --- */
     734:	e59f25c0 	ldr	r2, [pc, #1472]	@ 0xcfc
     738:	e3a0000f 	mov	r0, #15
     73c:	e5c20000 	strb	r0, [r2]
     740:	e3a00000 	mov	r0, #0
     744:	e5820080 	str	r0, [r2, #128]	@ 0x80
     748:	e3a000d4 	mov	r0, #212	@ 0xd4
     74c:	e5820094 	str	r0, [r2, #148]	@ 0x94
     750:	e3a00088 	mov	r0, #136	@ 0x88
     754:	e582009c 	str	r0, [r2, #156]	@ 0x9c
     758:	e3a00080 	mov	r0, #128	@ 0x80
     75c:	e58200a8 	str	r0, [r2, #168]	@ 0xa8
     760:	e3a00008 	mov	r0, #8
     764:	e58200ac 	str	r0, [r2, #172]	@ 0xac
     768:	e3a00000 	mov	r0, #0
     76c:	e58200b0 	str	r0, [r2, #176]	@ 0xb0
     770:	e3a00020 	mov	r0, #32
     774:	e58200b4 	str	r0, [r2, #180]	@ 0xb4
     778:	e3a00000 	mov	r0, #0
     77c:	e5820504 	str	r0, [r2, #1284]	@ 0x504
     780:	e59f0578 	ldr	r0, [pc, #1400]	@ 0xd00
     784:	e58200a4 	str	r0, [r2, #164]	@ 0xa4
     788:	e3a00001 	mov	r0, #1
     78c:	e5c20504 	strb	r0, [r2, #1284]	@ 0x504
     790:	e5c20504 	strb	r0, [r2, #1284]	@ 0x504
     794:	e5c20504 	strb	r0, [r2, #1284]	@ 0x504
     798:	e5c20504 	strb	r0, [r2, #1284]	@ 0x504
     79c:	e5920008 	ldr	r0, [r2, #8]
     7a0:	e5920008 	ldr	r0, [r2, #8]
     7a4:	e5920008 	ldr	r0, [r2, #8]
     7a8:	e5920008 	ldr	r0, [r2, #8]
     7ac:	e3a000ff 	mov	r0, #255	@ 0xff
     7b0:	e5c2000c 	strb	r0, [r2, #12]
     7b4:	e92d8000 	stmfd	sp!, {pc}
     7b8:	e1a00000 	nop			@ (mov r0, r0)
     7bc:	ea0005fc 	b	0x1fb4
     7c0:	e92d8000 	stmfd	sp!, {pc}
     7c4:	e1a00000 	nop			@ (mov r0, r0)
     7c8:	ea000000 	b	0x7d0
     7cc:	e8bd8000 	ldmfd	sp!, {pc}
     7d0:	e3a0001f 	mov	r0, #31
     7d4:	e59f2528 	ldr	r2, [pc, #1320]	@ 0xd04
     7d8:	e4820004 	str	r0, [r2], #4
     7dc:	e3a0000f 	mov	r0, #15
     7e0:	e5820000 	str	r0, [r2]
     7e4:	e8bd8000 	ldmfd	sp!, {pc}
     7e8:	e59f0518 	ldr	r0, [pc, #1304]	@ 0xd08
     7ec:	e59f1518 	ldr	r1, [pc, #1304]	@ 0xd0c
     7f0:	e3a02020 	mov	r2, #32
     7f4:	e92d8000 	stmfd	sp!, {pc}
     7f8:	e1a00000 	nop			@ (mov r0, r0)
     7fc:	ea0004fc 	b	0x1bf4
     800:	e59f0508 	ldr	r0, [pc, #1288]	@ 0xd10
     804:	e59f1508 	ldr	r1, [pc, #1288]	@ 0xd14
     808:	e3a02020 	mov	r2, #32
     80c:	e92d8000 	stmfd	sp!, {pc}
     810:	e1a00000 	nop			@ (mov r0, r0)
     814:	ea0004f6 	b	0x1bf4
     818:	e59f04c0 	ldr	r0, [pc, #1216]	@ 0xce0
     81c:	e3a01020 	mov	r1, #32
     820:	e3e02000 	mvn	r2, #0
     824:	e92d8000 	stmfd	sp!, {pc}
     828:	e1a00000 	nop			@ (mov r0, r0)
     82c:	ea0004fc 	b	0x1c24
     830:	e59f04a4 	ldr	r0, [pc, #1188]	@ 0xcdc
     834:	e3a01020 	mov	r1, #32
     838:	e3e02000 	mvn	r2, #0
     83c:	e92d8000 	stmfd	sp!, {pc}
     840:	e1a00000 	nop			@ (mov r0, r0)
     844:	ea0004f6 	b	0x1c24
     848:	e59f04c8 	ldr	r0, [pc, #1224]	@ 0xd18
     84c:	e59f14c8 	ldr	r1, [pc, #1224]	@ 0xd1c
     850:	e3a02040 	mov	r2, #64	@ 0x40
     854:	e92d8000 	stmfd	sp!, {pc}
     858:	e1a00000 	nop			@ (mov r0, r0)
     85c:	ea0004e4 	b	0x1bf4
     860:	e59f04b0 	ldr	r0, [pc, #1200]	@ 0xd18
     864:	e59f14b8 	ldr	r1, [pc, #1208]	@ 0xd24
     868:	e3a02040 	mov	r2, #64	@ 0x40
     86c:	e92d8000 	stmfd	sp!, {pc}
     870:	e1a00000 	nop			@ (mov r0, r0)
     874:	ea0004de 	b	0x1bf4
     878:	e59f046c 	ldr	r0, [pc, #1132]	@ 0xcec
     87c:	e3a01c02 	mov	r1, #512	@ 0x200
     880:	e3e02000 	mvn	r2, #0
     884:	e92d8000 	stmfd	sp!, {pc}
     888:	e1a00000 	nop			@ (mov r0, r0)
     88c:	ea0004e4 	b	0x1c24
     890:	e59f0490 	ldr	r0, [pc, #1168]	@ 0xd28
     894:	e3a01000 	mov	r1, #0
     898:	e5c01016 	strb	r1, [r0, #22]
     89c:	e2800040 	add	r0, r0, #64	@ 0x40
     8a0:	e2811001 	add	r1, r1, #1
     8a4:	e3510040 	cmp	r1, #64	@ 0x40
     8a8:	1afffffa 	bne	0x898
     8ac:	e59f2430 	ldr	r2, [pc, #1072]	@ 0xce4
     8b0:	e3a01000 	mov	r1, #0
     8b4:	e3a00040 	mov	r0, #64	@ 0x40
     8b8:	e5c20016 	strb	r0, [r2, #22]
     8bc:	e5c20017 	strb	r0, [r2, #23]
     8c0:	e2822020 	add	r2, r2, #32
     8c4:	e2811001 	add	r1, r1, #1
     8c8:	e3510008 	cmp	r1, #8
     8cc:	1afffff9 	bne	0x8b8
     8d0:	e59f2454 	ldr	r2, [pc, #1108]	@ 0xd2c
     8d4:	e3a01000 	mov	r1, #0
     8d8:	e3a00040 	mov	r0, #64	@ 0x40
     8dc:	e5c20001 	strb	r0, [r2, #1]
     8e0:	e5c21018 	strb	r1, [r2, #24]
     8e4:	e2822060 	add	r2, r2, #96	@ 0x60
     8e8:	e2811001 	add	r1, r1, #1
     8ec:	e3510008 	cmp	r1, #8
     8f0:	1afffff9 	bne	0x8dc
     8f4:	e3a00000 	mov	r0, #0
     8f8:	e5cc0018 	strb	r0, [ip, #24]
     8fc:	e5cc001c 	strb	r0, [ip, #28]
     900:	e5cc0111 	strb	r0, [ip, #273]	@ 0x111
     904:	e3a00001 	mov	r0, #1
     908:	e5cc001d 	strb	r0, [ip, #29]
     90c:	e3a000ff 	mov	r0, #255	@ 0xff
     910:	e5cc0019 	strb	r0, [ip, #25]
     914:	e5cc001b 	strb	r0, [ip, #27]
     918:	e5cc0009 	strb	r0, [ip, #9]
     91c:	e3a00020 	mov	r0, #32
     920:	e5cc0114 	strb	r0, [ip, #276]	@ 0x114
     924:	e3a0007f 	mov	r0, #127	@ 0x7f
     928:	e5cc0005 	strb	r0, [ip, #5]
     92c:	e3a00020 	mov	r0, #32
     930:	e5cc0006 	strb	r0, [ip, #6]
     934:	e3a00019 	mov	r0, #25
     938:	e5cc0030 	strb	r0, [ip, #48]	@ 0x30
     93c:	e3a0000a 	mov	r0, #10
     940:	e5cc0031 	strb	r0, [ip, #49]	@ 0x31
     944:	e3a00000 	mov	r0, #0
     948:	e5cc001a 	strb	r0, [ip, #26]
     94c:	e59f73dc 	ldr	r7, [pc, #988]	@ 0xd30
     950:	e3a00000 	mov	r0, #0
     954:	e5870000 	str	r0, [r7]
     958:	e59f03d4 	ldr	r0, [pc, #980]	@ 0xd34
     95c:	e5870004 	str	r0, [r7, #4]
     960:	e3a00b03 	mov	r0, #3072	@ 0xc00
     964:	e5870008 	str	r0, [r7, #8]
     968:	e3a00802 	mov	r0, #131072	@ 0x20000
     96c:	e587000c 	str	r0, [r7, #12]
     970:	e59f03c0 	ldr	r0, [pc, #960]	@ 0xd38
     974:	e5870010 	str	r0, [r7, #16]

/* --- AICA hardware init: set up channel registers for all 64 voices --- */
     978:	e8bd8000 	ldmfd	sp!, {pc}
     97c:	e59f7378 	ldr	r7, [pc, #888]	@ 0xcfc
     980:	e59f63a8 	ldr	r6, [pc, #936]	@ 0xd30
     984:	e92d8000 	stmfd	sp!, {pc}
     988:	e1a00000 	nop			@ (mov r0, r0)
     98c:	ea000008 	b	0x9b4
     990:	e58c0084 	str	r0, [ip, #132]	@ 0x84
     994:	e58c1090 	str	r1, [ip, #144]	@ 0x90
     998:	e5872004 	str	r2, [r7, #4]
     99c:	e586100c 	str	r1, [r6, #12]
     9a0:	e5862010 	str	r2, [r6, #16]
     9a4:	e92d8000 	stmfd	sp!, {pc}
     9a8:	e1a00000 	nop			@ (mov r0, r0)
     9ac:	ea00002d 	b	0xa68
     9b0:	e8bd8000 	ldmfd	sp!, {pc}
     9b4:	e59f3380 	ldr	r3, [pc, #896]	@ 0xd3c
     9b8:	e5d30011 	ldrb	r0, [r3, #17]
     9bc:	e2000002 	and	r0, r0, #2
     9c0:	e1a00080 	lsl	r0, r0, #1
     9c4:	e5dc101a 	ldrb	r1, [ip, #26]
     9c8:	e0800001 	add	r0, r0, r1
     9cc:	e1a00200 	lsl	r0, r0, #4
     9d0:	e59f3348 	ldr	r3, [pc, #840]	@ 0xd20
     9d4:	e0833000 	add	r3, r3, r0
     9d8:	e5930000 	ldr	r0, [r3]
     9dc:	e5931008 	ldr	r1, [r3, #8]
     9e0:	e5932004 	ldr	r2, [r3, #4]
     9e4:	e8bd8000 	ldmfd	sp!, {pc}
     9e8:	00200000 	eoreq	r0, r0, r0
     9ec:	000003f8 	strdeq	r0, [r0], -r8
     9f0:	00004000 	andeq	r4, r0, r0
     9f4:	00000000 	andeq	r0, r0, r0
     9f8:	00200000 	eoreq	r0, r0, r0
     9fc:	000023f0 	strdeq	r2, [r0], -r0
     a00:	00008000 	andeq	r8, r0, r0
     a04:	00000000 	andeq	r0, r0, r0
     a08:	00200000 	eoreq	r0, r0, r0
     a0c:	000043e0 	andeq	r4, r0, r0, ror #7
     a10:	00010000 	andeq	r0, r1, r0
     a14:	00000000 	andeq	r0, r0, r0
     a18:	00200000 	eoreq	r0, r0, r0
     a1c:	000063c0 	andeq	r6, r0, r0, asr #7
     a20:	00020000 	andeq	r0, r2, r0
     a24:	00000000 	andeq	r0, r0, r0
     a28:	00800000 	addeq	r0, r0, r0
     a2c:	00000ff8 	strdeq	r0, [r0], -r8
     a30:	00004000 	andeq	r4, r0, r0
     a34:	00000000 	andeq	r0, r0, r0
     a38:	00800000 	addeq	r0, r0, r0
     a3c:	00002ff0 	strdeq	r2, [r0], -r0
     a40:	00008000 	andeq	r8, r0, r0
     a44:	00000000 	andeq	r0, r0, r0
     a48:	00800000 	addeq	r0, r0, r0
     a4c:	00004fe0 	andeq	r4, r0, r0, ror #31
     a50:	00010000 	andeq	r0, r1, r0
     a54:	00000000 	andeq	r0, r0, r0
     a58:	00800000 	addeq	r0, r0, r0
     a5c:	00006fc0 	andeq	r6, r0, r0, asr #31
     a60:	00020000 	andeq	r0, r2, r0
     a64:	00000000 	andeq	r0, r0, r0
     a68:	e59c0084 	ldr	r0, [ip, #132]	@ 0x84
     a6c:	e59c1088 	ldr	r1, [ip, #136]	@ 0x88
     a70:	e59c208c 	ldr	r2, [ip, #140]	@ 0x8c
     a74:	e59c3080 	ldr	r3, [ip, #128]	@ 0x80
     a78:	e59c4090 	ldr	r4, [ip, #144]	@ 0x90
     a7c:	e0400003 	sub	r0, r0, r3
     a80:	e0400004 	sub	r0, r0, r4
     a84:	e0403001 	sub	r3, r0, r1
     a88:	e0404002 	sub	r4, r0, r2
     a8c:	e59f22a8 	ldr	r2, [pc, #680]	@ 0xd3c
     a90:	e582304c 	str	r3, [r2, #76]	@ 0x4c
     a94:	e5824048 	str	r4, [r2, #72]	@ 0x48
     a98:	e8bd8000 	ldmfd	sp!, {pc}
     a9c:	e59f12a0 	ldr	r1, [pc, #672]	@ 0xd44
     aa0:	e1811000 	orr	r1, r1, r0
     aa4:	e1810008 	orr	r0, r1, r8
     aa8:	e92d0f00 	push	{r8, r9, sl, fp}
     aac:	e92d8000 	stmfd	sp!, {pc}
     ab0:	e1a00000 	nop			@ (mov r0, r0)
     ab4:	ea001756 	b	0x6814
     ab8:	e8bd0f00 	pop	{r8, r9, sl, fp}
     abc:	e59f027c 	ldr	r0, [pc, #636]	@ 0xd40
     ac0:	e1a07008 	mov	r7, r8
     ac4:	e92d8000 	stmfd	sp!, {pc}
     ac8:	e1a00000 	nop			@ (mov r0, r0)
     acc:	ea000423 	b	0x1b60
     ad0:	e8bd8000 	ldmfd	sp!, {pc}
     ad4:	e92d0080 	stmfd	sp!, {r7}
     ad8:	e59a0004 	ldr	r0, [sl, #4]
     adc:	e2000007 	and	r0, r0, #7
     ae0:	e1500007 	cmp	r0, r7
     ae4:	1a000002 	bne	0xaf4
     ae8:	e92d8000 	stmfd	sp!, {pc}
     aec:	e1a00000 	nop			@ (mov r0, r0)
     af0:	ea000097 	b	0xd54
     af4:	e8bd0080 	ldmfd	sp!, {r7}
     af8:	e8bd8000 	ldmfd	sp!, {pc}
     afc:	e92d00f0 	push	{r4, r5, r6, r7}
     b00:	e59f7244 	ldr	r7, [pc, #580]	@ 0xd4c
     b04:	e59f6244 	ldr	r6, [pc, #580]	@ 0xd50
     b08:	e1a05000 	mov	r5, r0
     b0c:	e5970004 	ldr	r0, [r7, #4]
     b10:	e1b00000 	movs	r0, r0
     b14:	0a000006 	beq	0xb34
     b18:	e5d70003 	ldrb	r0, [r7, #3]
     b1c:	e1500005 	cmp	r0, r5
     b20:	1a000003 	bne	0xb34
     b24:	e1a00007 	mov	r0, r7
     b28:	e92d8000 	stmfd	sp!, {pc}
     b2c:	e1a00000 	nop			@ (mov r0, r0)
     b30:	ea0012df 	b	0x56b4
     b34:	e2877060 	add	r7, r7, #96	@ 0x60
     b38:	e1570006 	cmp	r7, r6
     b3c:	1afffff2 	bne	0xb0c
     b40:	e8bd00f0 	pop	{r4, r5, r6, r7}
     b44:	e8bd8000 	ldmfd	sp!, {pc}
     b48:	e92d00f0 	push	{r4, r5, r6, r7}
     b4c:	e1a00300 	lsl	r0, r0, #6
     b50:	e59f7194 	ldr	r7, [pc, #404]	@ 0xcec
     b54:	e0877000 	add	r7, r7, r0
     b58:	e3a06040 	mov	r6, #64	@ 0x40
     b5c:	e0866007 	add	r6, r6, r7
     b60:	e3a05000 	mov	r5, #0
     b64:	e1a04001 	mov	r4, r1
     b68:	e7d70005 	ldrb	r0, [r7, r5]
     b6c:	e35000ff 	cmp	r0, #255	@ 0xff
     b70:	0a000014 	beq	0xbc8
     b74:	e1a03000 	mov	r3, r0
     b78:	e1a00300 	lsl	r0, r0, #6
     b7c:	e59f2174 	ldr	r2, [pc, #372]	@ 0xcf8
     b80:	e0822000 	add	r2, r2, r0
     b84:	e5d20000 	ldrb	r0, [r2]
     b88:	e3100001 	tst	r0, #1
     b8c:	0a000002 	beq	0xb9c
     b90:	e3140002 	tst	r4, #2
     b94:	1a000002 	bne	0xba4
     b98:	ea000007 	b	0xbbc
     b9c:	e3140001 	tst	r4, #1
     ba0:	0a000005 	beq	0xbbc
     ba4:	e1a00003 	mov	r0, r3
     ba8:	e92d8000 	stmfd	sp!, {pc}
     bac:	e1a00000 	nop			@ (mov r0, r0)
     bb0:	ea0004b6 	b	0x1e90
     bb4:	e3a000ff 	mov	r0, #255	@ 0xff
     bb8:	e7c70005 	strb	r0, [r7, r5]
     bbc:	e2855001 	add	r5, r5, #1
     bc0:	e3550004 	cmp	r5, #4
     bc4:	1affffe7 	bne	0xb68
     bc8:	e3a05000 	mov	r5, #0
     bcc:	e2877004 	add	r7, r7, #4
     bd0:	e1570006 	cmp	r7, r6
     bd4:	1affffe3 	bne	0xb68
     bd8:	e8bd00f0 	pop	{r4, r5, r6, r7}
     bdc:	e8bd8000 	ldmfd	sp!, {pc}
     be0:	e1a03000 	mov	r3, r0
     be4:	e5932008 	ldr	r2, [r3, #8]
     be8:	e5d21004 	ldrb	r1, [r2, #4]
     bec:	e5d20003 	ldrb	r0, [r2, #3]
     bf0:	e35000ff 	cmp	r0, #255	@ 0xff
     bf4:	1a000001 	bne	0xc00
     bf8:	e5933000 	ldr	r3, [r3]
     bfc:	e5d30012 	ldrb	r0, [r3, #18]
     c00:	e8bd8000 	ldmfd	sp!, {pc}
     c04:	00010000 	andeq	r0, r1, r0
     c08:	00200000 	eoreq	r0, r0, r0
	...
     c14:	00004000 	andeq	r4, r0, r0
	...
     c24:	0000eb00 	andeq	lr, r0, r0, lsl #22
     c28:	0000e800 	andeq	lr, r0, r0, lsl #16
     c2c:	0000c800 	andeq	ip, r0, r0, lsl #16
     c30:	0000f498 	muleq	r0, r8, r4
	...
     c44:	03020100 	movweq	r0, #8448	@ 0x2100
     c48:	07060504 	streq	r0, [r6, -r4, lsl #10]
     c4c:	0b0a0908 	bleq	0x283074
     c50:	0f0e0d0c 	svceq	0x000e0d0c
     c54:	13121110 	tstne	r2, #16, 2
     c58:	17161514 			@ <UNDEFINED> instruction: 0x17161514
     c5c:	1b1a1918 	blne	0x6870c4
     c60:	1f1e1d1c 	svcne	0x001e1d1c
     c64:	23222120 			@ <UNDEFINED> instruction: 0x23222120
     c68:	27262524 	strcs	r2, [r6, -r4, lsr #10]!
     c6c:	2b2a2928 	blcs	0xa8b114
     c70:	2f2e2d2c 	svccs	0x002e2d2c
     c74:	33323130 	teqcc	r2, #48, 2
     c78:	37363534 			@ <UNDEFINED> instruction: 0x37363534
     c7c:	3b3a3938 	blcc	0xe8f164
     c80:	3f3e3d3c 	svccc	0x003e3d3c
     c84:	43424140 	movtmi	r4, #8512	@ 0x2140
     c88:	47464544 	strbmi	r4, [r6, -r4, asr #10]
     c8c:	4b4a4948 	blmi	0x12931b4
     c90:	4f4e4d4c 	svcmi	0x004e4d4c
     c94:	53525150 	cmppl	r2, #80, 2
     c98:	57565554 			@ <UNDEFINED> instruction: 0x57565554
     c9c:	5b5a5958 	blpl	0x1697204
     ca0:	5f5e5d5c 	svcpl	0x005e5d5c
     ca4:	63626160 	cmnvs	r2, #96, 2
     ca8:	67666564 	strbvs	r6, [r6, -r4, ror #10]!
     cac:	6b6a6968 	blvs	0x1a9b254
     cb0:	6f6e6d6c 	svcvs	0x006e6d6c
     cb4:	73727170 	cmnvc	r2, #112, 2
     cb8:	77767574 			@ <UNDEFINED> instruction: 0x77767574
     cbc:	7b7a7978 	blvc	0x1e9f2a4
     cc0:	7f7e7d7c 	svcvc	0x007e7d7c
     cc4:	e5dc0160 	ldrb	r0, [ip, #352]	@ 0x160
     cc8:	e5dc1161 	ldrb	r1, [ip, #353]	@ 0x161
     ccc:	e1500001 	cmp	r0, r1
     cd0:	0a000000 	beq	0xcd8
     cd4:	e35d0000 	cmp	sp, #0
     cd8:	e8bd8000 	ldmfd	sp!, {pc}
     cdc:	0000c260 	andeq	ip, r0, r0, ror #4
     ce0:	0000c240 	andeq	ip, r0, r0, asr #4
     ce4:	0000eb00 	andeq	lr, r0, r0, lsl #22
     ce8:	4b505444 	blmi	0x1415e00
     cec:	0000e800 	andeq	lr, r0, r0, lsl #16
     cf0:	0000ffff 	strdeq	pc, [r0], -pc	@ <UNPREDICTABLE>
     cf4:	00000060 	andeq	r0, r0, r0, rrx
     cf8:	0000c800 	andeq	ip, r0, r0, lsl #16
     cfc:	00802800 	addeq	r2, r0, r0, lsl #16
     d00:	000007ff 	strdeq	r0, [r0], -pc	@ <UNPREDICTABLE>
     d04:	00802040 	addeq	r2, r0, r0, asr #32
     d08:	00001b04 	andeq	r1, r0, r4, lsl #22
     d0c:	0000c280 	andeq	ip, r0, r0, lsl #5
     d10:	00001b24 	andeq	r1, r0, r4, lsr #22
     d14:	0000c3a0 	andeq	ip, r0, r0, lsr #7
     d18:	00001b44 	andeq	r1, r0, r4, asr #22
     d1c:	0000edc0 	andeq	lr, r0, r0, asr #27
     d20:	000018e8 	andeq	r1, r0, r8, ror #17
     d24:	0000ed80 	andeq	lr, r0, r0, lsl #27
     d28:	0000d800 	andeq	sp, r0, r0, lsl #16
     d2c:	00000100 	andeq	r0, r0, r0, lsl #2
     d30:	0000ed00 	andeq	lr, r0, r0, lsl #26
     d34:	00803000 	addeq	r3, r0, r0
     d38:	000063c0 	andeq	r6, r0, r0, asr #7
     d3c:	00000040 	andeq	r0, r0, r0, asr #32
     d40:	000019d4 	ldrdeq	r1, [r0], -r4
     d44:	a0001100 	andge	r1, r0, r0, lsl #2
     d48:	00000000 	andeq	r0, r0, r0
     d4c:	0000ee00 	andeq	lr, r0, r0, lsl #28
     d50:	0000f400 	andeq	pc, r0, r0, lsl #8
     d54:	e5da0000 	ldrb	r0, [sl]
     d58:	e3100080 	tst	r0, #128	@ 0x80
     d5c:	0a00002a 	beq	0xe0c
     d60:	e2001010 	and	r1, r0, #16
     d64:	e3510010 	cmp	r1, #16
     d68:	1a00000c 	bne	0xda0
     d6c:	e59a103c 	ldr	r1, [sl, #60]	@ 0x3c
     d70:	e5d10003 	ldrb	r0, [r1, #3]
     d74:	e35000ff 	cmp	r0, #255	@ 0xff
     d78:	0a000003 	beq	0xd8c
     d7c:	e1590000 	cmp	r9, r0
     d80:	03a000ff 	moveq	r0, #255	@ 0xff
     d84:	e5c10003 	strb	r0, [r1, #3]
     d88:	0a00000c 	beq	0xdc0
     d8c:	e3a00000 	mov	r0, #0
     d90:	e5c10002 	strb	r0, [r1, #2]
     d94:	e5c10000 	strb	r0, [r1]
     d98:	e5810014 	str	r0, [r1, #20]
     d9c:	ea000007 	b	0xdc0
     da0:	e200000c 	and	r0, r0, #12
     da4:	e350000c 	cmp	r0, #12
     da8:	1a000004 	bne	0xdc0
     dac:	e59f0dfc 	ldr	r0, [pc, #3580]	@ 0x1bb0
     db0:	e59a103c 	ldr	r1, [sl, #60]	@ 0x3c
     db4:	e1b01001 	movs	r1, r1
     db8:	0a000000 	beq	0xdc0
     dbc:	e5810000 	str	r0, [r1]
     dc0:	e1a0000b 	mov	r0, fp
     dc4:	e92d8000 	stmfd	sp!, {pc}
     dc8:	e1a00000 	nop			@ (mov r0, r0)
     dcc:	ea000455 	b	0x1f28
     dd0:	e1a0000a 	mov	r0, sl
     dd4:	e92d8000 	stmfd	sp!, {pc}
     dd8:	e1a00000 	nop			@ (mov r0, r0)
     ddc:	ea0004de 	b	0x215c
     de0:	e1a07000 	mov	r7, r0
     de4:	e1a06009 	mov	r6, r9
     de8:	e92d8000 	stmfd	sp!, {pc}
     dec:	e1a00000 	nop			@ (mov r0, r0)
     df0:	ea000213 	b	0x1644
     df4:	e3a00000 	mov	r0, #0
     df8:	e5ca0000 	strb	r0, [sl]
     dfc:	e1a00009 	mov	r0, r9
     e00:	e92d8000 	stmfd	sp!, {pc}
     e04:	e1a00000 	nop			@ (mov r0, r0)
     e08:	ea000498 	b	0x2070
     e0c:	e8bd8000 	ldmfd	sp!, {pc}
     e10:	e92d0700 	push	{r8, r9, sl}
     e14:	e1a08000 	mov	r8, r0
     e18:	e1a09001 	mov	r9, r1
     e1c:	e1a0a002 	mov	sl, r2
     e20:	e3a00001 	mov	r0, #1
     e24:	e92d8000 	stmfd	sp!, {pc}
     e28:	e1a00000 	nop			@ (mov r0, r0)
     e2c:	ea00001b 	b	0xea0
     e30:	0a000018 	beq	0xe98
     e34:	e1a00006 	mov	r0, r6
     e38:	e1a00300 	lsl	r0, r0, #6
     e3c:	e59f5d70 	ldr	r5, [pc, #3440]	@ 0x1bb4
     e40:	e0855000 	add	r5, r5, r0
     e44:	e1a00005 	mov	r0, r5
     e48:	e3a01040 	mov	r1, #64	@ 0x40
     e4c:	e3a02000 	mov	r2, #0
     e50:	e92d8000 	stmfd	sp!, {pc}
     e54:	e1a00000 	nop			@ (mov r0, r0)
     e58:	ea000371 	b	0x1c24
     e5c:	e59f7d54 	ldr	r7, [pc, #3412]	@ 0x1bb8
     e60:	e92d8000 	stmfd	sp!, {pc}
     e64:	e1a00000 	nop			@ (mov r0, r0)
     e68:	ea0001d9 	b	0x15d4
     e6c:	e3a000c0 	mov	r0, #192	@ 0xc0
     e70:	e1888000 	orr	r8, r8, r0
     e74:	e1a07005 	mov	r7, r5
     e78:	e5c78000 	strb	r8, [r7]
     e7c:	e5c76016 	strb	r6, [r7, #22]
     e80:	e5c79003 	strb	r9, [r7, #3]
     e84:	e5c7a012 	strb	sl, [r7, #18]
     e88:	e3a000ff 	mov	r0, #255	@ 0xff
     e8c:	e5c70017 	strb	r0, [r7, #23]
     e90:	e5c7000a 	strb	r0, [r7, #10]
     e94:	e35d0000 	cmp	sp, #0
     e98:	e8bd0700 	pop	{r8, r9, sl}
     e9c:	e8bd8000 	ldmfd	sp!, {pc}
     ea0:	e3100001 	tst	r0, #1
     ea4:	0a000009 	beq	0xed0
     ea8:	e1a05001 	mov	r5, r1
     eac:	e5dc0108 	ldrb	r0, [ip, #264]	@ 0x108
     eb0:	e5dc1114 	ldrb	r1, [ip, #276]	@ 0x114
     eb4:	e1500001 	cmp	r0, r1
     eb8:	3a000004 	bcc	0xed0
     ebc:	e92d8000 	stmfd	sp!, {pc}
     ec0:	e1a00000 	nop			@ (mov r0, r0)
     ec4:	ea000039 	b	0xfb0
     ec8:	0a000023 	beq	0xf5c
     ecc:	ea00000e 	b	0xf0c
     ed0:	e92d8000 	stmfd	sp!, {pc}
     ed4:	e1a00000 	nop			@ (mov r0, r0)
     ed8:	ea000455 	b	0x2034
     edc:	1a000004 	bne	0xef4
     ee0:	e92d8000 	stmfd	sp!, {pc}
     ee4:	e1a00000 	nop			@ (mov r0, r0)
     ee8:	ea00001c 	b	0xf60
     eec:	0a00001a 	beq	0xf5c
     ef0:	ea000005 	b	0xf0c
     ef4:	e1a06000 	mov	r6, r0
     ef8:	e1a00380 	lsl	r0, r0, #7
     efc:	e3a07502 	mov	r7, #8388608	@ 0x800000
     f00:	e0877000 	add	r7, r7, r0
     f04:	e35d0000 	cmp	sp, #0
     f08:	ea000013 	b	0xf5c
     f0c:	e1a06000 	mov	r6, r0
     f10:	e1a00380 	lsl	r0, r0, #7
     f14:	e3a07502 	mov	r7, #8388608	@ 0x800000
     f18:	e0877000 	add	r7, r7, r0
     f1c:	e1a00007 	mov	r0, r7
     f20:	e92d8000 	stmfd	sp!, {pc}
     f24:	e1a00000 	nop			@ (mov r0, r0)
     f28:	ea0003fe 	b	0x1f28
     f2c:	e1a00006 	mov	r0, r6
     f30:	e92d8000 	stmfd	sp!, {pc}
     f34:	e1a00000 	nop			@ (mov r0, r0)
     f38:	ea001482 	b	0x6148
     f3c:	e1a00006 	mov	r0, r6
     f40:	e92d8000 	stmfd	sp!, {pc}
     f44:	e1a00000 	nop			@ (mov r0, r0)
     f48:	ea000027 	b	0xfec
     f4c:	e92d8000 	stmfd	sp!, {pc}
     f50:	e1a00000 	nop			@ (mov r0, r0)
     f54:	ea000045 	b	0x1070
     f58:	e35d0000 	cmp	sp, #0
     f5c:	e8bd8000 	ldmfd	sp!, {pc}
     f60:	e5dc010c 	ldrb	r0, [ip, #268]	@ 0x10c
     f64:	e1b00000 	movs	r0, r0
     f68:	0a000005 	beq	0xf84
     f6c:	e5dc610d 	ldrb	r6, [ip, #269]	@ 0x10d
     f70:	e59f7c44 	ldr	r7, [pc, #3140]	@ 0x1bbc
     f74:	e92d8000 	stmfd	sp!, {pc}
     f78:	e1a00000 	nop			@ (mov r0, r0)
     f7c:	ea0001b0 	b	0x1644
     f80:	ea000007 	b	0xfa4
     f84:	e5dc0104 	ldrb	r0, [ip, #260]	@ 0x104
     f88:	e1b00000 	movs	r0, r0
     f8c:	0a000006 	beq	0xfac
     f90:	e5dc6105 	ldrb	r6, [ip, #261]	@ 0x105
     f94:	e59f7c24 	ldr	r7, [pc, #3108]	@ 0x1bc0
     f98:	e92d8000 	stmfd	sp!, {pc}
     f9c:	e1a00000 	nop			@ (mov r0, r0)
     fa0:	ea0001a7 	b	0x1644
     fa4:	e1a00006 	mov	r0, r6
     fa8:	e35d0000 	cmp	sp, #0
     fac:	e8bd8000 	ldmfd	sp!, {pc}
     fb0:	e5dc0108 	ldrb	r0, [ip, #264]	@ 0x108
     fb4:	e1b00000 	movs	r0, r0
     fb8:	0a00000a 	beq	0xfe8
     fbc:	e59f7bf4 	ldr	r7, [pc, #3060]	@ 0x1bb8
     fc0:	e92d8000 	stmfd	sp!, {pc}
     fc4:	e1a00000 	nop			@ (mov r0, r0)
     fc8:	ea000030 	b	0x1090
     fcc:	0a000005 	beq	0xfe8
     fd0:	e1a06000 	mov	r6, r0
     fd4:	e92d8000 	stmfd	sp!, {pc}
     fd8:	e1a00000 	nop			@ (mov r0, r0)
     fdc:	ea000198 	b	0x1644
     fe0:	e1a00006 	mov	r0, r6
     fe4:	e35d0000 	cmp	sp, #0
     fe8:	e8bd8000 	ldmfd	sp!, {pc}
     fec:	e1a02000 	mov	r2, r0
     ff0:	e1a00300 	lsl	r0, r0, #6
     ff4:	e59f3bb8 	ldr	r3, [pc, #3000]	@ 0x1bb4
     ff8:	e0833000 	add	r3, r3, r0
     ffc:	e5d30017 	ldrb	r0, [r3, #23]
    1000:	e35000ff 	cmp	r0, #255	@ 0xff
    1004:	0a000018 	beq	0x106c
    1008:	e35000fe 	cmp	r0, #254	@ 0xfe
    100c:	1a000002 	bne	0x101c
    1010:	e5d3000a 	ldrb	r0, [r3, #10]
    1014:	e35000ff 	cmp	r0, #255	@ 0xff
    1018:	0a000013 	beq	0x106c
    101c:	e1a01000 	mov	r1, r0
    1020:	e1a00300 	lsl	r0, r0, #6
    1024:	e59f3b88 	ldr	r3, [pc, #2952]	@ 0x1bb4
    1028:	e0833000 	add	r3, r3, r0
    102c:	e92d00f0 	push	{r4, r5, r6, r7}
    1030:	e1a06001 	mov	r6, r1
    1034:	e92d0e00 	push	{r9, sl, fp}
    1038:	e1a09001 	mov	r9, r1
    103c:	e1a0a003 	mov	sl, r3
    1040:	e1a01381 	lsl	r1, r1, #7
    1044:	e3a0b502 	mov	fp, #8388608	@ 0x800000
    1048:	e08bb001 	add	fp, fp, r1
    104c:	e92d8000 	stmfd	sp!, {pc}
    1050:	e1a00000 	nop			@ (mov r0, r0)
    1054:	eaffff3e 	b	0xd54
    1058:	e8bd0e00 	pop	{r9, sl, fp}
    105c:	e92d8000 	stmfd	sp!, {pc}
    1060:	e1a00000 	nop			@ (mov r0, r0)
    1064:	ea000001 	b	0x1070
    1068:	e8bd00f0 	pop	{r4, r5, r6, r7}
    106c:	e8bd8000 	ldmfd	sp!, {pc}
    1070:	e5dc0110 	ldrb	r0, [ip, #272]	@ 0x110
    1074:	e3500002 	cmp	r0, #2
    1078:	1a000003 	bne	0x108c
    107c:	e5dc0111 	ldrb	r0, [ip, #273]	@ 0x111
    1080:	e1500006 	cmp	r0, r6
    1084:	03a00000 	moveq	r0, #0
    1088:	05cc0110 	strbeq	r0, [ip, #272]	@ 0x110
    108c:	e8bd8000 	ldmfd	sp!, {pc}
    1090:	e92d0070 	push	{r4, r5, r6}
    1094:	e3a060ff 	mov	r6, #255	@ 0xff
    1098:	e3a040ff 	mov	r4, #255	@ 0xff
    109c:	e5d70001 	ldrb	r0, [r7, #1]
    10a0:	e35000ff 	cmp	r0, #255	@ 0xff
    10a4:	0a00000e 	beq	0x10e4
    10a8:	e1a03000 	mov	r3, r0
    10ac:	e1a00300 	lsl	r0, r0, #6
    10b0:	e59f2afc 	ldr	r2, [pc, #2812]	@ 0x1bb4
    10b4:	e0822000 	add	r2, r2, r0
    10b8:	e5d20011 	ldrb	r0, [r2, #17]
    10bc:	e5d21003 	ldrb	r1, [r2, #3]
    10c0:	e1510005 	cmp	r1, r5
    10c4:	3afffff5 	bcc	0x10a0
    10c8:	0a000002 	beq	0x10d8
    10cc:	e1a06003 	mov	r6, r3
    10d0:	e1a05001 	mov	r5, r1
    10d4:	eafffff1 	b	0x10a0
    10d8:	e35400ff 	cmp	r4, #255	@ 0xff
    10dc:	01a04003 	moveq	r4, r3
    10e0:	eaffffee 	b	0x10a0
    10e4:	e35600ff 	cmp	r6, #255	@ 0xff
    10e8:	11a00006 	movne	r0, r6
    10ec:	1a000002 	bne	0x10fc
    10f0:	e35400ff 	cmp	r4, #255	@ 0xff
    10f4:	11a00004 	movne	r0, r4
    10f8:	1affffff 	bne	0x10fc
    10fc:	e8bd0070 	pop	{r4, r5, r6}
    1100:	e8bd8000 	ldmfd	sp!, {pc}
    1104:	e59b0020 	ldr	r0, [fp, #32]
    1108:	e59f1ab4 	ldr	r1, [pc, #2740]	@ 0x1bc4
    110c:	e1100001 	tst	r0, r1
    1110:	0a00000f 	beq	0x1154
    1114:	e59b0020 	ldr	r0, [fp, #32]
    1118:	e92d8000 	stmfd	sp!, {pc}
    111c:	e1a00000 	nop			@ (mov r0, r0)
    1120:	ea00000c 	b	0x1158
    1124:	e1a07000 	mov	r7, r0
    1128:	e5dc00a1 	ldrb	r0, [ip, #161]	@ 0xa1
    112c:	e1b00000 	movs	r0, r0
    1130:	1a000006 	bne	0x1150
    1134:	e59c00e0 	ldr	r0, [ip, #224]	@ 0xe0
    1138:	e1a0100b 	mov	r1, fp
    113c:	e92d8000 	stmfd	sp!, {pc}
    1140:	e1a00000 	nop			@ (mov r0, r0)
    1144:	ea000054 	b	0x129c
    1148:	e3a00001 	mov	r0, #1
    114c:	e5cc00a1 	strb	r0, [ip, #161]	@ 0xa1
    1150:	e1b00007 	movs	r0, r7
    1154:	e8bd8000 	ldmfd	sp!, {pc}
    1158:	e92d4f00 	push	{r8, r9, sl, fp, lr}
    115c:	e58c8130 	str	r8, [ip, #304]	@ 0x130
    1160:	e58c9134 	str	r9, [ip, #308]	@ 0x134
    1164:	e58ca138 	str	sl, [ip, #312]	@ 0x138
    1168:	e58cb13c 	str	fp, [ip, #316]	@ 0x13c
    116c:	e3100040 	tst	r0, #64	@ 0x40
    1170:	0a00000d 	beq	0x11ac
    1174:	e5db1024 	ldrb	r1, [fp, #36]	@ 0x24
    1178:	e1b01001 	movs	r1, r1
    117c:	0a000007 	beq	0x11a0
    1180:	e3100902 	tst	r0, #32768	@ 0x8000
    1184:	1a000002 	bne	0x1194
    1188:	e3a00001 	mov	r0, #1
    118c:	e3a01001 	mov	r1, #1
    1190:	ea000008 	b	0x11b8
    1194:	e3a00002 	mov	r0, #2
    1198:	e3a01001 	mov	r1, #1
    119c:	ea000005 	b	0x11b8
    11a0:	e3a00000 	mov	r0, #0
    11a4:	e5cc00bd 	strb	r0, [ip, #189]	@ 0xbd
    11a8:	ea000038 	b	0x1290
    11ac:	e3a00000 	mov	r0, #0
    11b0:	e3a01000 	mov	r1, #0
    11b4:	eaffffff 	b	0x11b8
    11b8:	e5cc00bc 	strb	r0, [ip, #188]	@ 0xbc
    11bc:	e5cc10bd 	strb	r1, [ip, #189]	@ 0xbd
    11c0:	e5dc00a3 	ldrb	r0, [ip, #163]	@ 0xa3
    11c4:	e3500001 	cmp	r0, #1
    11c8:	0a000030 	beq	0x1290
    11cc:	e3a0e502 	mov	lr, #8388608	@ 0x800000
    11d0:	e59fb9f0 	ldr	fp, [pc, #2544]	@ 0x1bc8
    11d4:	e59fa9d8 	ldr	sl, [pc, #2520]	@ 0x1bb4
    11d8:	e59f99ec 	ldr	r9, [pc, #2540]	@ 0x1bcc
    11dc:	e59c80e0 	ldr	r8, [ip, #224]	@ 0xe0
    11e0:	e0088009 	and	r8, r8, r9
    11e4:	e5da0000 	ldrb	r0, [sl]
    11e8:	e2000094 	and	r0, r0, #148	@ 0x94
    11ec:	e3500080 	cmp	r0, #128	@ 0x80
    11f0:	1a000020 	bne	0x1278
    11f4:	e59a0004 	ldr	r0, [sl, #4]
    11f8:	e0000009 	and	r0, r0, r9
    11fc:	e1500008 	cmp	r0, r8
    1200:	1a00001c 	bne	0x1278
    1204:	e5dc00bc 	ldrb	r0, [ip, #188]	@ 0xbc
    1208:	e3500000 	cmp	r0, #0
    120c:	0a000012 	beq	0x125c
    1210:	e3500002 	cmp	r0, #2
    1214:	0affffff 	beq	0x1218
    1218:	e92d0f00 	push	{r8, r9, sl, fp}
    121c:	e59c8130 	ldr	r8, [ip, #304]	@ 0x130
    1220:	e59c9134 	ldr	r9, [ip, #308]	@ 0x134
    1224:	e59ca138 	ldr	sl, [ip, #312]	@ 0x138
    1228:	e59cb13c 	ldr	fp, [ip, #316]	@ 0x13c
    122c:	e92d8000 	stmfd	sp!, {pc}
    1230:	e1a00000 	nop			@ (mov r0, r0)
    1234:	ea0007de 	b	0x31b4
    1238:	e58c1168 	str	r1, [ip, #360]	@ 0x168
    123c:	e92d8000 	stmfd	sp!, {pc}
    1240:	e1a00000 	nop			@ (mov r0, r0)
    1244:	ea0007a3 	b	0x30d8
    1248:	e5cc0164 	strb	r0, [ip, #356]	@ 0x164
    124c:	e8bd0f00 	pop	{r8, r9, sl, fp}
    1250:	e5dc00e2 	ldrb	r0, [ip, #226]	@ 0xe2
    1254:	e5ca0006 	strb	r0, [sl, #6]
    1258:	ea000006 	b	0x1278
    125c:	e5da1016 	ldrb	r1, [sl, #22]
    1260:	e1a01381 	lsl	r1, r1, #7
    1264:	e3a00502 	mov	r0, #8388608	@ 0x800000
    1268:	e0800001 	add	r0, r0, r1
    126c:	e92d8000 	stmfd	sp!, {pc}
    1270:	e1a00000 	nop			@ (mov r0, r0)
    1274:	ea000324 	b	0x1f0c
    1278:	e28ee080 	add	lr, lr, #128	@ 0x80
    127c:	e28aa040 	add	sl, sl, #64	@ 0x40
    1280:	e15a000b 	cmp	sl, fp
    1284:	1affffd6 	bne	0x11e4
    1288:	e3a00001 	mov	r0, #1
    128c:	e5cc00a3 	strb	r0, [ip, #163]	@ 0xa3
    1290:	e5dc00bd 	ldrb	r0, [ip, #189]	@ 0xbd
    1294:	e8bd4f00 	pop	{r8, r9, sl, fp, lr}
    1298:	e8bd8000 	ldmfd	sp!, {pc}
    129c:	e92d0080 	stmfd	sp!, {r7}
    12a0:	e5dc20be 	ldrb	r2, [ip, #190]	@ 0xbe
    12a4:	e3a03000 	mov	r3, #0
    12a8:	e5cc30be 	strb	r3, [ip, #190]	@ 0xbe
    12ac:	e3520001 	cmp	r2, #1
    12b0:	0a00000e 	beq	0x12f0
    12b4:	e1a07001 	mov	r7, r1
    12b8:	e1a01820 	lsr	r1, r0, #16
    12bc:	e21110ff 	ands	r1, r1, #255	@ 0xff
    12c0:	e1a02420 	lsr	r2, r0, #8
    12c4:	e21220ff 	ands	r2, r2, #255	@ 0xff
    12c8:	e5c71025 	strb	r1, [r7, #37]	@ 0x25
    12cc:	e5c72027 	strb	r2, [r7, #39]	@ 0x27
    12d0:	e5970028 	ldr	r0, [r7, #40]	@ 0x28
    12d4:	e1a00400 	lsl	r0, r0, #8
    12d8:	e1800001 	orr	r0, r0, r1
    12dc:	e5870028 	str	r0, [r7, #40]	@ 0x28
    12e0:	e5d70024 	ldrb	r0, [r7, #36]	@ 0x24
    12e4:	e3500004 	cmp	r0, #4
    12e8:	12800001 	addne	r0, r0, #1
    12ec:	e5c70024 	strb	r0, [r7, #36]	@ 0x24
    12f0:	e8bd0080 	ldmfd	sp!, {r7}
    12f4:	e8bd8000 	ldmfd	sp!, {pc}
    12f8:	e92d0f00 	push	{r8, r9, sl, fp}
    12fc:	e5dc00a3 	ldrb	r0, [ip, #163]	@ 0xa3
    1300:	e3500001 	cmp	r0, #1
    1304:	0a000013 	beq	0x1358
    1308:	e3a00001 	mov	r0, #1
    130c:	e5cc00a3 	strb	r0, [ip, #163]	@ 0xa3
    1310:	e5d80022 	ldrb	r0, [r8, #34]	@ 0x22
    1314:	e2100083 	ands	r0, r0, #131	@ 0x83
    1318:	0a00000e 	beq	0x1358
    131c:	e3500080 	cmp	r0, #128	@ 0x80
    1320:	0a000005 	beq	0x133c
    1324:	e3500081 	cmp	r0, #129	@ 0x81
    1328:	0a000007 	beq	0x134c
    132c:	e92d8000 	stmfd	sp!, {pc}
    1330:	e1a00000 	nop			@ (mov r0, r0)
    1334:	ea000045 	b	0x1450
    1338:	ea000006 	b	0x1358
    133c:	e92d8000 	stmfd	sp!, {pc}
    1340:	e1a00000 	nop			@ (mov r0, r0)
    1344:	ea000005 	b	0x1360
    1348:	ea000002 	b	0x1358
    134c:	e92d8000 	stmfd	sp!, {pc}
    1350:	e1a00000 	nop			@ (mov r0, r0)
    1354:	ea00001d 	b	0x13d0
    1358:	e8bd0f00 	pop	{r8, r9, sl, fp}
    135c:	e8bd8000 	ldmfd	sp!, {pc}
    1360:	e3a0ba01 	mov	fp, #4096	@ 0x1000
    1364:	e59fa848 	ldr	sl, [pc, #2120]	@ 0x1bb4
    1368:	e08bb00a 	add	fp, fp, sl
    136c:	e59f985c 	ldr	r9, [pc, #2140]	@ 0x1bd0
    1370:	e59c80e0 	ldr	r8, [ip, #224]	@ 0xe0
    1374:	e0088009 	and	r8, r8, r9
    1378:	e59f6854 	ldr	r6, [pc, #2132]	@ 0x1bd4
    137c:	e59f5854 	ldr	r5, [pc, #2132]	@ 0x1bd8
    1380:	e59a0000 	ldr	r0, [sl]
    1384:	e0000006 	and	r0, r0, r6
    1388:	e1500005 	cmp	r0, r5
    138c:	1a00000a 	bne	0x13bc
    1390:	e59a0004 	ldr	r0, [sl, #4]
    1394:	e0000009 	and	r0, r0, r9
    1398:	e1500008 	cmp	r0, r8
    139c:	1a000006 	bne	0x13bc
    13a0:	e5da1016 	ldrb	r1, [sl, #22]
    13a4:	e1a01381 	lsl	r1, r1, #7
    13a8:	e3a00502 	mov	r0, #8388608	@ 0x800000
    13ac:	e0800001 	add	r0, r0, r1
    13b0:	e92d8000 	stmfd	sp!, {pc}
    13b4:	e1a00000 	nop			@ (mov r0, r0)
    13b8:	ea0002ce 	b	0x1ef8
    13bc:	e28aa040 	add	sl, sl, #64	@ 0x40
    13c0:	e15a000b 	cmp	sl, fp
    13c4:	1affffed 	bne	0x1380
    13c8:	e1500000 	cmp	r0, r0
    13cc:	e8bd8000 	ldmfd	sp!, {pc}
    13d0:	e5d87023 	ldrb	r7, [r8, #35]	@ 0x23
    13d4:	e3a0ba01 	mov	fp, #4096	@ 0x1000
    13d8:	e59fa7d4 	ldr	sl, [pc, #2004]	@ 0x1bb4
    13dc:	e08bb00a 	add	fp, fp, sl
    13e0:	e59f97e4 	ldr	r9, [pc, #2020]	@ 0x1bcc
    13e4:	e59c80e0 	ldr	r8, [ip, #224]	@ 0xe0
    13e8:	e0088009 	and	r8, r8, r9
    13ec:	e59f67e0 	ldr	r6, [pc, #2016]	@ 0x1bd4
    13f0:	e59f57e4 	ldr	r5, [pc, #2020]	@ 0x1bdc
    13f4:	e59a0000 	ldr	r0, [sl]
    13f8:	e0000006 	and	r0, r0, r6
    13fc:	e1500005 	cmp	r0, r5
    1400:	1a00000d 	bne	0x143c
    1404:	e59a0004 	ldr	r0, [sl, #4]
    1408:	e0000009 	and	r0, r0, r9
    140c:	e1500008 	cmp	r0, r8
    1410:	1a000009 	bne	0x143c
    1414:	e5da0002 	ldrb	r0, [sl, #2]
    1418:	e1500007 	cmp	r0, r7
    141c:	1a000006 	bne	0x143c
    1420:	e5da1016 	ldrb	r1, [sl, #22]
    1424:	e1a01381 	lsl	r1, r1, #7
    1428:	e3a00502 	mov	r0, #8388608	@ 0x800000
    142c:	e0800001 	add	r0, r0, r1
    1430:	e92d8000 	stmfd	sp!, {pc}
    1434:	e1a00000 	nop			@ (mov r0, r0)
    1438:	ea0002ae 	b	0x1ef8
    143c:	e28aa040 	add	sl, sl, #64	@ 0x40
    1440:	e15a000b 	cmp	sl, fp
    1444:	1affffea 	bne	0x13f4
    1448:	e1500000 	cmp	r0, r0
    144c:	e8bd8000 	ldmfd	sp!, {pc}
    1450:	e5d87023 	ldrb	r7, [r8, #35]	@ 0x23
    1454:	e3a0ba01 	mov	fp, #4096	@ 0x1000
    1458:	e59fa754 	ldr	sl, [pc, #1876]	@ 0x1bb4
    145c:	e08bb00a 	add	fp, fp, sl
    1460:	e59f9764 	ldr	r9, [pc, #1892]	@ 0x1bcc
    1464:	e59c80e0 	ldr	r8, [ip, #224]	@ 0xe0
    1468:	e0088009 	and	r8, r8, r9
    146c:	e59f6760 	ldr	r6, [pc, #1888]	@ 0x1bd4
    1470:	e59f5768 	ldr	r5, [pc, #1896]	@ 0x1be0
    1474:	e59a0000 	ldr	r0, [sl]
    1478:	e0000006 	and	r0, r0, r6
    147c:	e1500005 	cmp	r0, r5
    1480:	1a000008 	bne	0x14a8
    1484:	e59a0004 	ldr	r0, [sl, #4]
    1488:	e0000009 	and	r0, r0, r9
    148c:	e1500008 	cmp	r0, r8
    1490:	1a000004 	bne	0x14a8
    1494:	e5da0002 	ldrb	r0, [sl, #2]
    1498:	e1500007 	cmp	r0, r7
    149c:	1a000001 	bne	0x14a8
    14a0:	e35d0000 	cmp	sp, #0
    14a4:	e8bd8000 	ldmfd	sp!, {pc}
    14a8:	e28aa040 	add	sl, sl, #64	@ 0x40
    14ac:	e15a000b 	cmp	sl, fp
    14b0:	1affffef 	bne	0x1474
    14b4:	e8bd8000 	ldmfd	sp!, {pc}
    14b8:	e5da0000 	ldrb	r0, [sl]
    14bc:	e3100040 	tst	r0, #64	@ 0x40
    14c0:	1a000009 	bne	0x14ec
    14c4:	e1a06009 	mov	r6, r9
    14c8:	e59f76f0 	ldr	r7, [pc, #1776]	@ 0x1bc0
    14cc:	e92d8000 	stmfd	sp!, {pc}
    14d0:	e1a00000 	nop			@ (mov r0, r0)
    14d4:	ea00005a 	b	0x1644
    14d8:	e1a06009 	mov	r6, r9
    14dc:	e59f76d8 	ldr	r7, [pc, #1752]	@ 0x1bbc
    14e0:	e92d8000 	stmfd	sp!, {pc}
    14e4:	e1a00000 	nop			@ (mov r0, r0)
    14e8:	ea000039 	b	0x15d4
    14ec:	e8bd8000 	ldmfd	sp!, {pc}
    14f0:	e5dc00a2 	ldrb	r0, [ip, #162]	@ 0xa2
    14f4:	e1b00000 	movs	r0, r0
    14f8:	0a00001e 	beq	0x1578
    14fc:	e59f76e0 	ldr	r7, [pc, #1760]	@ 0x1be4
    1500:	e3a010ff 	mov	r1, #255	@ 0xff
    1504:	e7c71000 	strb	r1, [r7, r0]
    1508:	e4d70001 	ldrb	r0, [r7], #1
    150c:	e35000ff 	cmp	r0, #255	@ 0xff
    1510:	0a000015 	beq	0x156c
    1514:	e1a01000 	mov	r1, r0
    1518:	e1a00380 	lsl	r0, r0, #7
    151c:	e3a06502 	mov	r6, #8388608	@ 0x800000
    1520:	e0866000 	add	r6, r6, r0
    1524:	e1a01301 	lsl	r1, r1, #6
    1528:	e59f5684 	ldr	r5, [pc, #1668]	@ 0x1bb4
    152c:	e0855001 	add	r5, r5, r1
    1530:	e5d70000 	ldrb	r0, [r7]
    1534:	e5c50008 	strb	r0, [r5, #8]
    1538:	e5d60001 	ldrb	r0, [r6, #1]
    153c:	e3800040 	orr	r0, r0, #64	@ 0x40
    1540:	e5c60001 	strb	r0, [r6, #1]
    1544:	e1a00006 	mov	r0, r6
    1548:	e92d8000 	stmfd	sp!, {pc}
    154c:	e1a00000 	nop			@ (mov r0, r0)
    1550:	ea000462 	b	0x26e0
    1554:	e5d6001d 	ldrb	r0, [r6, #29]
    1558:	e3100080 	tst	r0, #128	@ 0x80
    155c:	0affffe9 	beq	0x1508
    1560:	e200007f 	and	r0, r0, #127	@ 0x7f
    1564:	e5c6001d 	strb	r0, [r6, #29]
    1568:	eaffffe6 	b	0x1508
    156c:	e5d60001 	ldrb	r0, [r6, #1]
    1570:	e38000c0 	orr	r0, r0, #192	@ 0xc0
    1574:	e5c60001 	strb	r0, [r6, #1]
    1578:	e8bd8000 	ldmfd	sp!, {pc}
    157c:	e5d65020 	ldrb	r5, [r6, #32]
    1580:	e3150001 	tst	r5, #1
    1584:	0a00000b 	beq	0x15b8
    1588:	e5960018 	ldr	r0, [r6, #24]
    158c:	e5961030 	ldr	r1, [r6, #48]	@ 0x30
    1590:	e0800001 	add	r0, r0, r1
    1594:	e3c00003 	bic	r0, r0, #3
    1598:	e92d8000 	stmfd	sp!, {pc}
    159c:	e1a00000 	nop			@ (mov r0, r0)
    15a0:	ea0003e7 	b	0x2544
    15a4:	e5870018 	str	r0, [r7, #24]
    15a8:	e5961030 	ldr	r1, [r6, #48]	@ 0x30
    15ac:	e1911001 	orrs	r1, r1, r1
    15b0:	020550fe 	andeq	r5, r5, #254	@ 0xfe
    15b4:	05c65020 	strbeq	r5, [r6, #32]
    15b8:	e8bd8000 	ldmfd	sp!, {pc}
    15bc:	e5dc10a2 	ldrb	r1, [ip, #162]	@ 0xa2
    15c0:	e59f261c 	ldr	r2, [pc, #1564]	@ 0x1be4
    15c4:	e7c20001 	strb	r0, [r2, r1]
    15c8:	e2811001 	add	r1, r1, #1
    15cc:	e5cc10a2 	strb	r1, [ip, #162]	@ 0xa2
    15d0:	e8bd8000 	ldmfd	sp!, {pc}
    15d4:	e92d0030 	push	{r4, r5}
    15d8:	e1a00006 	mov	r0, r6
    15dc:	e1a00300 	lsl	r0, r0, #6
    15e0:	e59f55cc 	ldr	r5, [pc, #1484]	@ 0x1bb4
    15e4:	e0855000 	add	r5, r5, r0
    15e8:	e5d70000 	ldrb	r0, [r7]
    15ec:	e1b00000 	movs	r0, r0
    15f0:	e2800001 	add	r0, r0, #1
    15f4:	e5c70000 	strb	r0, [r7]
    15f8:	0a00000a 	beq	0x1628
    15fc:	e5d70002 	ldrb	r0, [r7, #2]
    1600:	e1a01000 	mov	r1, r0
    1604:	e1a00300 	lsl	r0, r0, #6
    1608:	e59f45a4 	ldr	r4, [pc, #1444]	@ 0x1bb4
    160c:	e0844000 	add	r4, r4, r0
    1610:	e3a000ff 	mov	r0, #255	@ 0xff
    1614:	e5c50011 	strb	r0, [r5, #17]
    1618:	e5c51010 	strb	r1, [r5, #16]
    161c:	e5c46011 	strb	r6, [r4, #17]
    1620:	e5c76002 	strb	r6, [r7, #2]
    1624:	ea000004 	b	0x163c
    1628:	e3a000ff 	mov	r0, #255	@ 0xff
    162c:	e5c50010 	strb	r0, [r5, #16]
    1630:	e5c50011 	strb	r0, [r5, #17]
    1634:	e5c76001 	strb	r6, [r7, #1]
    1638:	e5c76002 	strb	r6, [r7, #2]
    163c:	e8bd0030 	pop	{r4, r5}
    1640:	e8bd8000 	ldmfd	sp!, {pc}
    1644:	e92d0030 	push	{r4, r5}
    1648:	e5d70000 	ldrb	r0, [r7]
    164c:	e2500001 	subs	r0, r0, #1
    1650:	e5c70000 	strb	r0, [r7]
    1654:	0a00001d 	beq	0x16d0
    1658:	e1a00006 	mov	r0, r6
    165c:	e1a00300 	lsl	r0, r0, #6
    1660:	e59f254c 	ldr	r2, [pc, #1356]	@ 0x1bb4
    1664:	e0822000 	add	r2, r2, r0
    1668:	e5d20010 	ldrb	r0, [r2, #16]
    166c:	e5d21011 	ldrb	r1, [r2, #17]
    1670:	e1a02000 	mov	r2, r0
    1674:	e1a03001 	mov	r3, r1
    1678:	e1a02302 	lsl	r2, r2, #6
    167c:	e59f4530 	ldr	r4, [pc, #1328]	@ 0x1bb4
    1680:	e0844002 	add	r4, r4, r2
    1684:	e1a03303 	lsl	r3, r3, #6
    1688:	e59f5524 	ldr	r5, [pc, #1316]	@ 0x1bb4
    168c:	e0855003 	add	r5, r5, r3
    1690:	e5d72001 	ldrb	r2, [r7, #1]
    1694:	e1520006 	cmp	r2, r6
    1698:	0a000005 	beq	0x16b4
    169c:	e5d72002 	ldrb	r2, [r7, #2]
    16a0:	e1520006 	cmp	r2, r6
    16a4:	0a000006 	beq	0x16c4
    16a8:	e5c41011 	strb	r1, [r4, #17]
    16ac:	e5c50010 	strb	r0, [r5, #16]
    16b0:	ea000006 	b	0x16d0
    16b4:	e3a020ff 	mov	r2, #255	@ 0xff
    16b8:	e5c52010 	strb	r2, [r5, #16]
    16bc:	e5c71001 	strb	r1, [r7, #1]
    16c0:	ea000002 	b	0x16d0
    16c4:	e3a020ff 	mov	r2, #255	@ 0xff
    16c8:	e5c42011 	strb	r2, [r4, #17]
    16cc:	e5c70002 	strb	r0, [r7, #2]
    16d0:	e8bd0030 	pop	{r4, r5}
    16d4:	e8bd8000 	ldmfd	sp!, {pc}
    16d8:	e59c10e0 	ldr	r1, [ip, #224]	@ 0xe0
    16dc:	e3110008 	tst	r1, #8
    16e0:	0a000003 	beq	0x16f4
    16e4:	e92d8000 	stmfd	sp!, {pc}
    16e8:	e1a00000 	nop			@ (mov r0, r0)
    16ec:	ea000004 	b	0x1704
    16f0:	e8bd8000 	ldmfd	sp!, {pc}
    16f4:	e92d8000 	stmfd	sp!, {pc}
    16f8:	e1a00000 	nop			@ (mov r0, r0)
    16fc:	ea00000e 	b	0x173c
    1700:	e8bd8000 	ldmfd	sp!, {pc}
    1704:	e59fb4dc 	ldr	fp, [pc, #1244]	@ 0x1be8
    1708:	e1a09000 	mov	r9, r0
    170c:	e3a08000 	mov	r8, #0
    1710:	e59b0000 	ldr	r0, [fp]
    1714:	e1b00000 	movs	r0, r0
    1718:	0a000002 	beq	0x1728
    171c:	e92d8000 	stmfd	sp!, {pc}
    1720:	e59c00e0 	ldr	r0, [ip, #224]	@ 0xe0
    1724:	e1a0f009 	mov	pc, r9
    1728:	e28bb020 	add	fp, fp, #32
    172c:	e2888001 	add	r8, r8, #1
    1730:	e3580008 	cmp	r8, #8
    1734:	1afffff5 	bne	0x1710
    1738:	e8bd8000 	ldmfd	sp!, {pc}
    173c:	e59c10e0 	ldr	r1, [ip, #224]	@ 0xe0
    1740:	e21120ff 	ands	r2, r1, #255	@ 0xff
    1744:	e2022007 	and	r2, r2, #7
    1748:	e1a02282 	lsl	r2, r2, #5
    174c:	e59fb494 	ldr	fp, [pc, #1172]	@ 0x1be8
    1750:	e08bb002 	add	fp, fp, r2
    1754:	e1a09000 	mov	r9, r0
    1758:	e92d8000 	stmfd	sp!, {pc}
    175c:	e1a00001 	mov	r0, r1
    1760:	e1a0f009 	mov	pc, r9
    1764:	e8bd8000 	ldmfd	sp!, {pc}
    1768:	e59c10e0 	ldr	r1, [ip, #224]	@ 0xe0
    176c:	e3110008 	tst	r1, #8
    1770:	0a000003 	beq	0x1784
    1774:	e92d8000 	stmfd	sp!, {pc}
    1778:	e1a00000 	nop			@ (mov r0, r0)
    177c:	ea000004 	b	0x1794
    1780:	e8bd8000 	ldmfd	sp!, {pc}
    1784:	e92d8000 	stmfd	sp!, {pc}
    1788:	e1a00000 	nop			@ (mov r0, r0)
    178c:	ea000025 	b	0x1828
    1790:	e8bd8000 	ldmfd	sp!, {pc}
    1794:	e58c00e8 	str	r0, [ip, #232]	@ 0xe8
    1798:	e92d4000 	stmfd	sp!, {lr}
    179c:	e3a08000 	mov	r8, #0
    17a0:	e59f9444 	ldr	r9, [pc, #1092]	@ 0x1bec
    17a4:	e59fa43c 	ldr	sl, [pc, #1084]	@ 0x1be8
    17a8:	e59a0000 	ldr	r0, [sl]
    17ac:	e1b00000 	movs	r0, r0
    17b0:	0a000002 	beq	0x17c0
    17b4:	e92d8000 	stmfd	sp!, {pc}
    17b8:	e1a00000 	nop			@ (mov r0, r0)
    17bc:	ea000006 	b	0x17dc
    17c0:	e28aa020 	add	sl, sl, #32
    17c4:	e2899040 	add	r9, r9, #64	@ 0x40
    17c8:	e2888001 	add	r8, r8, #1
    17cc:	e3580008 	cmp	r8, #8
    17d0:	1afffff4 	bne	0x17a8
    17d4:	e8bd4000 	ldmfd	sp!, {lr}
    17d8:	e8bd8000 	ldmfd	sp!, {pc}
    17dc:	e92d0100 	stmfd	sp!, {r8}
    17e0:	e3a08000 	mov	r8, #0
    17e4:	e3a0e004 	mov	lr, #4
    17e8:	e7d9b008 	ldrb	fp, [r9, r8]
    17ec:	e35b00ff 	cmp	fp, #255	@ 0xff
    17f0:	0a000006 	beq	0x1810
    17f4:	e59c30e8 	ldr	r3, [ip, #232]	@ 0xe8
    17f8:	e92d8000 	stmfd	sp!, {pc}
    17fc:	e59c00e0 	ldr	r0, [ip, #224]	@ 0xe0
    1800:	e1a0f003 	mov	pc, r3
    1804:	e2888001 	add	r8, r8, #1
    1808:	e158000e 	cmp	r8, lr
    180c:	1afffff5 	bne	0x17e8
    1810:	e1a0800e 	mov	r8, lr
    1814:	e28ee004 	add	lr, lr, #4
    1818:	e3580040 	cmp	r8, #64	@ 0x40
    181c:	1afffff1 	bne	0x17e8
    1820:	e8bd0100 	ldmfd	sp!, {r8}
    1824:	e8bd8000 	ldmfd	sp!, {pc}
    1828:	e58c00e8 	str	r0, [ip, #232]	@ 0xe8
    182c:	e92d4000 	stmfd	sp!, {lr}
    1830:	e3a08000 	mov	r8, #0
    1834:	e3a0e004 	mov	lr, #4
    1838:	e59c00e0 	ldr	r0, [ip, #224]	@ 0xe0
    183c:	e2000007 	and	r0, r0, #7
    1840:	e1a01000 	mov	r1, r0
    1844:	e1a00300 	lsl	r0, r0, #6
    1848:	e59f939c 	ldr	r9, [pc, #924]	@ 0x1bec
    184c:	e0899000 	add	r9, r9, r0
    1850:	e1a01281 	lsl	r1, r1, #5
    1854:	e59fa38c 	ldr	sl, [pc, #908]	@ 0x1be8
    1858:	e08aa001 	add	sl, sl, r1
    185c:	e7d9b008 	ldrb	fp, [r9, r8]
    1860:	e35b00ff 	cmp	fp, #255	@ 0xff
    1864:	0a000006 	beq	0x1884
    1868:	e59c30e8 	ldr	r3, [ip, #232]	@ 0xe8
    186c:	e92d8000 	stmfd	sp!, {pc}
    1870:	e59c00e0 	ldr	r0, [ip, #224]	@ 0xe0
    1874:	e1a0f003 	mov	pc, r3
    1878:	e2888001 	add	r8, r8, #1
    187c:	e158000e 	cmp	r8, lr
    1880:	1afffff5 	bne	0x185c
    1884:	e1a0800e 	mov	r8, lr
    1888:	e28ee004 	add	lr, lr, #4
    188c:	e3580040 	cmp	r8, #64	@ 0x40
    1890:	1afffff1 	bne	0x185c
    1894:	e8bd4000 	ldmfd	sp!, {lr}
    1898:	e8bd8000 	ldmfd	sp!, {pc}
    189c:	e58c00e8 	str	r0, [ip, #232]	@ 0xe8
    18a0:	e3a08000 	mov	r8, #0
    18a4:	e59c00e0 	ldr	r0, [ip, #224]	@ 0xe0
    18a8:	e92d8000 	stmfd	sp!, {pc}
    18ac:	e1a00000 	nop			@ (mov r0, r0)
    18b0:	ea000206 	b	0x20d0
    18b4:	e1a09001 	mov	r9, r1
    18b8:	e7d9b008 	ldrb	fp, [r9, r8]
    18bc:	e35b00ff 	cmp	fp, #255	@ 0xff
    18c0:	0a000006 	beq	0x18e0
    18c4:	e59c30e8 	ldr	r3, [ip, #232]	@ 0xe8
    18c8:	e92d8000 	stmfd	sp!, {pc}
    18cc:	e59c00e0 	ldr	r0, [ip, #224]	@ 0xe0
    18d0:	e1a0f003 	mov	pc, r3
    18d4:	e2888001 	add	r8, r8, #1
    18d8:	e3580004 	cmp	r8, #4
    18dc:	1afffff5 	bne	0x18b8
    18e0:	e8bd8000 	ldmfd	sp!, {pc}
    18e4:	e58c00e8 	str	r0, [ip, #232]	@ 0xe8
    18e8:	e59c00e0 	ldr	r0, [ip, #224]	@ 0xe0
    18ec:	e2001007 	and	r1, r0, #7
    18f0:	e1a01301 	lsl	r1, r1, #6
    18f4:	e59f92f0 	ldr	r9, [pc, #752]	@ 0x1bec
    18f8:	e0899001 	add	r9, r9, r1
    18fc:	e1a01420 	lsr	r1, r0, #8
    1900:	e21110ff 	ands	r1, r1, #255	@ 0xff
    1904:	e201100f 	and	r1, r1, #15
    1908:	e1a01101 	lsl	r1, r1, #2
    190c:	e0899001 	add	r9, r9, r1
    1910:	e3a08000 	mov	r8, #0
    1914:	e7d9b008 	ldrb	fp, [r9, r8]
    1918:	e35b00ff 	cmp	fp, #255	@ 0xff
    191c:	0a000006 	beq	0x193c
    1920:	e59c30e8 	ldr	r3, [ip, #232]	@ 0xe8
    1924:	e92d8000 	stmfd	sp!, {pc}
    1928:	e59c00e0 	ldr	r0, [ip, #224]	@ 0xe0
    192c:	e1a0f003 	mov	pc, r3
    1930:	e2888001 	add	r8, r8, #1
    1934:	e3580004 	cmp	r8, #4
    1938:	1afffff5 	bne	0x1914
    193c:	e8bd8000 	ldmfd	sp!, {pc}
    1940:	e59c20e0 	ldr	r2, [ip, #224]	@ 0xe0
    1944:	e3120008 	tst	r2, #8
    1948:	03a01007 	moveq	r1, #7
    194c:	13a01000 	movne	r1, #0
    1950:	e92d8000 	stmfd	sp!, {pc}
    1954:	e1a00000 	nop			@ (mov r0, r0)
    1958:	ea000065 	b	0x1af4
    195c:	e8bd8000 	ldmfd	sp!, {pc}
    1960:	e58c00e8 	str	r0, [ip, #232]	@ 0xe8
    1964:	e1a08001 	mov	r8, r1
    1968:	e59f2280 	ldr	r2, [pc, #640]	@ 0x1bf0
    196c:	e5d23100 	ldrb	r3, [r2, #256]	@ 0x100
    1970:	e3530028 	cmp	r3, #40	@ 0x28
    1974:	2a000043 	bcs	0x1a88
    1978:	e5d23104 	ldrb	r3, [r2, #260]	@ 0x104
    197c:	e3530000 	cmp	r3, #0
    1980:	0a000007 	beq	0x19a4
    1984:	e5d29105 	ldrb	r9, [r2, #261]	@ 0x105
    1988:	e3a02040 	mov	r2, #64	@ 0x40
    198c:	e3a03080 	mov	r3, #128	@ 0x80
    1990:	e59fa21c 	ldr	sl, [pc, #540]	@ 0x1bb4
    1994:	e02aa299 	mla	sl, r9, r2, sl
    1998:	e3a0b502 	mov	fp, #8388608	@ 0x800000
    199c:	e02bb399 	mla	fp, r9, r3, fp
    19a0:	ea00000b 	b	0x19d4
    19a4:	e59f2244 	ldr	r2, [pc, #580]	@ 0x1bf0
    19a8:	e5d23108 	ldrb	r3, [r2, #264]	@ 0x108
    19ac:	e3530000 	cmp	r3, #0
    19b0:	0a00004e 	beq	0x1af0
    19b4:	e5d29109 	ldrb	r9, [r2, #265]	@ 0x109
    19b8:	e3a02040 	mov	r2, #64	@ 0x40
    19bc:	e3a03080 	mov	r3, #128	@ 0x80
    19c0:	e59fa1ec 	ldr	sl, [pc, #492]	@ 0x1bb4
    19c4:	e02aa299 	mla	sl, r9, r2, sl
    19c8:	e3a0b502 	mov	fp, #8388608	@ 0x800000
    19cc:	e02bb399 	mla	fp, r9, r3, fp
    19d0:	ea000014 	b	0x1a28
    19d4:	e1b08008 	movs	r8, r8
    19d8:	0a000005 	beq	0x19f4
    19dc:	e59c00e0 	ldr	r0, [ip, #224]	@ 0xe0
    19e0:	e59a1004 	ldr	r1, [sl, #4]
    19e4:	e0011008 	and	r1, r1, r8
    19e8:	e0002008 	and	r2, r0, r8
    19ec:	e1510002 	cmp	r1, r2
    19f0:	1a000002 	bne	0x1a00
    19f4:	e92d8000 	stmfd	sp!, {pc}
    19f8:	e59c10e8 	ldr	r1, [ip, #232]	@ 0xe8
    19fc:	e1a0f001 	mov	pc, r1
    1a00:	e5da9011 	ldrb	r9, [sl, #17]
    1a04:	e35900ff 	cmp	r9, #255	@ 0xff
    1a08:	0affffe5 	beq	0x19a4
    1a0c:	e3a02040 	mov	r2, #64	@ 0x40
    1a10:	e3a03080 	mov	r3, #128	@ 0x80
    1a14:	e59fa198 	ldr	sl, [pc, #408]	@ 0x1bb4
    1a18:	e02aa299 	mla	sl, r9, r2, sl
    1a1c:	e3a0b502 	mov	fp, #8388608	@ 0x800000
    1a20:	e02bb399 	mla	fp, r9, r3, fp
    1a24:	eaffffea 	b	0x19d4
    1a28:	e5da0000 	ldrb	r0, [sl]
    1a2c:	e3100014 	tst	r0, #20
    1a30:	1a00000a 	bne	0x1a60
    1a34:	e1b08008 	movs	r8, r8
    1a38:	0a000005 	beq	0x1a54
    1a3c:	e59c00e0 	ldr	r0, [ip, #224]	@ 0xe0
    1a40:	e59a1004 	ldr	r1, [sl, #4]
    1a44:	e0011008 	and	r1, r1, r8
    1a48:	e0002008 	and	r2, r0, r8
    1a4c:	e1510002 	cmp	r1, r2
    1a50:	1a000002 	bne	0x1a60
    1a54:	e92d8000 	stmfd	sp!, {pc}
    1a58:	e59c10e8 	ldr	r1, [ip, #232]	@ 0xe8
    1a5c:	e1a0f001 	mov	pc, r1
    1a60:	e5da9011 	ldrb	r9, [sl, #17]
    1a64:	e35900ff 	cmp	r9, #255	@ 0xff
    1a68:	0a000020 	beq	0x1af0
    1a6c:	e3a02040 	mov	r2, #64	@ 0x40
    1a70:	e3a03080 	mov	r3, #128	@ 0x80
    1a74:	e59fa138 	ldr	sl, [pc, #312]	@ 0x1bb4
    1a78:	e02aa299 	mla	sl, r9, r2, sl
    1a7c:	e3a0b502 	mov	fp, #8388608	@ 0x800000
    1a80:	e02bb399 	mla	fp, r9, r3, fp
    1a84:	eaffffe7 	b	0x1a28
    1a88:	e58c00e8 	str	r0, [ip, #232]	@ 0xe8
    1a8c:	e1a08001 	mov	r8, r1
    1a90:	e3a09000 	mov	r9, #0
    1a94:	e59fa118 	ldr	sl, [pc, #280]	@ 0x1bb4
    1a98:	e3a0b502 	mov	fp, #8388608	@ 0x800000
    1a9c:	e5da0000 	ldrb	r0, [sl]
    1aa0:	e3100080 	tst	r0, #128	@ 0x80
    1aa4:	0a00000c 	beq	0x1adc
    1aa8:	e3100014 	tst	r0, #20
    1aac:	1a00000a 	bne	0x1adc
    1ab0:	e1b08008 	movs	r8, r8
    1ab4:	0a000005 	beq	0x1ad0
    1ab8:	e59c00e0 	ldr	r0, [ip, #224]	@ 0xe0
    1abc:	e59a1004 	ldr	r1, [sl, #4]
    1ac0:	e0011008 	and	r1, r1, r8
    1ac4:	e0002008 	and	r2, r0, r8
    1ac8:	e1510002 	cmp	r1, r2
    1acc:	1a000002 	bne	0x1adc
    1ad0:	e92d8000 	stmfd	sp!, {pc}
    1ad4:	e59c10e8 	ldr	r1, [ip, #232]	@ 0xe8
    1ad8:	e1a0f001 	mov	pc, r1
    1adc:	e28bb080 	add	fp, fp, #128	@ 0x80
    1ae0:	e28aa040 	add	sl, sl, #64	@ 0x40
    1ae4:	e2899001 	add	r9, r9, #1
    1ae8:	e3590040 	cmp	r9, #64	@ 0x40
    1aec:	1affffea 	bne	0x1a9c
    1af0:	e8bd8000 	ldmfd	sp!, {pc}
    1af4:	e58c00e8 	str	r0, [ip, #232]	@ 0xe8
    1af8:	e1a08001 	mov	r8, r1
    1afc:	e3a09000 	mov	r9, #0
    1b00:	e59fa0ac 	ldr	sl, [pc, #172]	@ 0x1bb4
    1b04:	e3a0b502 	mov	fp, #8388608	@ 0x800000
    1b08:	e5da0000 	ldrb	r0, [sl]
    1b0c:	e3100080 	tst	r0, #128	@ 0x80
    1b10:	0a00000c 	beq	0x1b48
    1b14:	e3100014 	tst	r0, #20
    1b18:	1a00000a 	bne	0x1b48
    1b1c:	e1b08008 	movs	r8, r8
    1b20:	0a000005 	beq	0x1b3c
    1b24:	e59c00e0 	ldr	r0, [ip, #224]	@ 0xe0
    1b28:	e59a1004 	ldr	r1, [sl, #4]
    1b2c:	e0011008 	and	r1, r1, r8
    1b30:	e0002008 	and	r2, r0, r8
    1b34:	e1510002 	cmp	r1, r2
    1b38:	1a000002 	bne	0x1b48
    1b3c:	e92d8000 	stmfd	sp!, {pc}
    1b40:	e59c10e8 	ldr	r1, [ip, #232]	@ 0xe8
    1b44:	e1a0f001 	mov	pc, r1
    1b48:	e28bb080 	add	fp, fp, #128	@ 0x80
    1b4c:	e28aa040 	add	sl, sl, #64	@ 0x40
    1b50:	e2899001 	add	r9, r9, #1
    1b54:	e3590040 	cmp	r9, #64	@ 0x40
    1b58:	1affffea 	bne	0x1b08
    1b5c:	e8bd8000 	ldmfd	sp!, {pc}
    1b60:	e92d0f00 	push	{r8, r9, sl, fp}
    1b64:	e1a08000 	mov	r8, r0
    1b68:	e3a09000 	mov	r9, #0
    1b6c:	e59fa040 	ldr	sl, [pc, #64]	@ 0x1bb4
    1b70:	e3a0b502 	mov	fp, #8388608	@ 0x800000
    1b74:	e5da0000 	ldrb	r0, [sl]
    1b78:	e3100080 	tst	r0, #128	@ 0x80
    1b7c:	0a000004 	beq	0x1b94
    1b80:	e3100014 	tst	r0, #20
    1b84:	1a000002 	bne	0x1b94
    1b88:	e92d8000 	stmfd	sp!, {pc}
    1b8c:	e1a00000 	nop			@ (mov r0, r0)
    1b90:	e1a0f008 	mov	pc, r8
    1b94:	e2899001 	add	r9, r9, #1
    1b98:	e28aa040 	add	sl, sl, #64	@ 0x40
    1b9c:	e28bb080 	add	fp, fp, #128	@ 0x80
    1ba0:	e3590040 	cmp	r9, #64	@ 0x40
    1ba4:	1afffff2 	bne	0x1b74
    1ba8:	e8bd0f00 	pop	{r8, r9, sl, fp}
    1bac:	e8bd8000 	ldmfd	sp!, {pc}
    1bb0:	ffff0000 			@ <UNDEFINED> instruction: 0xffff0000
    1bb4:	0000d800 	andeq	sp, r0, r0, lsl #16
    1bb8:	0000c308 	andeq	ip, r0, r8, lsl #6
    1bbc:	0000c30c 	andeq	ip, r0, ip, lsl #6
    1bc0:	0000c304 	andeq	ip, r0, r4, lsl #6
    1bc4:	0000c0c0 	andeq	ip, r0, r0, asr #1
    1bc8:	0000e800 	andeq	lr, r0, r0, lsl #16
    1bcc:	0f000007 	svceq	0x00000007
    1bd0:	0f7f00f7 	svceq	0x007f00f7
    1bd4:	00008380 	andeq	r8, r0, r0, lsl #7
    1bd8:	00008080 	andeq	r8, r0, r0, lsl #1
    1bdc:	00008180 	andeq	r8, r0, r0, lsl #3
    1be0:	00008280 	andeq	r8, r0, r0, lsl #5
    1be4:	0000f400 	andeq	pc, r0, r0, lsl #8
    1be8:	0000eb00 	andeq	lr, r0, r0, lsl #22
    1bec:	0000e800 	andeq	lr, r0, r0, lsl #16
    1bf0:	0000c200 	andeq	ip, r0, r0, lsl #4
    1bf4:	e3120003 	tst	r2, #3
    1bf8:	1a000004 	bne	0x1c10
    1bfc:	e4903004 	ldr	r3, [r0], #4
    1c00:	e4813004 	str	r3, [r1], #4
    1c04:	e2522004 	subs	r2, r2, #4
    1c08:	1afffffb 	bne	0x1bfc
    1c0c:	e8bd8000 	ldmfd	sp!, {pc}
    1c10:	e4d03001 	ldrb	r3, [r0], #1
    1c14:	e4c13001 	strb	r3, [r1], #1
    1c18:	e2522001 	subs	r2, r2, #1
    1c1c:	1afffffb 	bne	0x1c10
    1c20:	e8bd8000 	ldmfd	sp!, {pc}
    1c24:	e3110003 	tst	r1, #3
    1c28:	1a000003 	bne	0x1c3c
    1c2c:	e4802004 	str	r2, [r0], #4
    1c30:	e2511004 	subs	r1, r1, #4
    1c34:	1afffffc 	bne	0x1c2c
    1c38:	e8bd8000 	ldmfd	sp!, {pc}
    1c3c:	e4c02001 	strb	r2, [r0], #1
    1c40:	e2511001 	subs	r1, r1, #1
    1c44:	1afffffc 	bne	0x1c3c
    1c48:	e8bd8000 	ldmfd	sp!, {pc}
    1c4c:	e59c1180 	ldr	r1, [ip, #384]	@ 0x180
    1c50:	e3510000 	cmp	r1, #0
    1c54:	0a000009 	beq	0x1c80
    1c58:	e59c2014 	ldr	r2, [ip, #20]
    1c5c:	e59f3af0 	ldr	r3, [pc, #2800]	@ 0x2754
    1c60:	e7930002 	ldr	r0, [r3, r2]
    1c64:	e2411001 	sub	r1, r1, #1
    1c68:	e2822004 	add	r2, r2, #4
    1c6c:	e3520b01 	cmp	r2, #1024	@ 0x400
    1c70:	03a02000 	moveq	r2, #0
    1c74:	e58c1180 	str	r1, [ip, #384]	@ 0x180
    1c78:	e58c2014 	str	r2, [ip, #20]
    1c7c:	e35d0000 	cmp	sp, #0
    1c80:	e8bd8000 	ldmfd	sp!, {pc}
    1c84:	e10f1000 	mrs	r1, CPSR
    1c88:	e38110c0 	orr	r1, r1, #192	@ 0xc0
    1c8c:	e129f001 	msr	CPSR_fc, r1
    1c90:	e92d0008 	stmfd	sp!, {r3}
    1c94:	e59c1180 	ldr	r1, [ip, #384]	@ 0x180
    1c98:	e3510c01 	cmp	r1, #256	@ 0x100
    1c9c:	0a000009 	beq	0x1cc8
    1ca0:	e59c2010 	ldr	r2, [ip, #16]
    1ca4:	e59f3aa8 	ldr	r3, [pc, #2728]	@ 0x2754
    1ca8:	e7830002 	str	r0, [r3, r2]
    1cac:	e2811001 	add	r1, r1, #1
    1cb0:	e2822004 	add	r2, r2, #4
    1cb4:	e3520b01 	cmp	r2, #1024	@ 0x400
    1cb8:	03a02000 	moveq	r2, #0
    1cbc:	e58c1180 	str	r1, [ip, #384]	@ 0x180
    1cc0:	e58c2010 	str	r2, [ip, #16]
    1cc4:	e35d0000 	cmp	sp, #0
    1cc8:	e8bd0008 	ldmfd	sp!, {r3}
    1ccc:	e10f1000 	mrs	r1, CPSR
    1cd0:	e3c110c0 	bic	r1, r1, #192	@ 0xc0
    1cd4:	e129f001 	msr	CPSR_fc, r1
    1cd8:	e8bd8000 	ldmfd	sp!, {pc}
    1cdc:	e59c1180 	ldr	r1, [ip, #384]	@ 0x180
    1ce0:	e3510c01 	cmp	r1, #256	@ 0x100
    1ce4:	0a000009 	beq	0x1d10
    1ce8:	e59c2010 	ldr	r2, [ip, #16]
    1cec:	e59f3a60 	ldr	r3, [pc, #2656]	@ 0x2754
    1cf0:	e7830002 	str	r0, [r3, r2]
    1cf4:	e2811001 	add	r1, r1, #1
    1cf8:	e2822004 	add	r2, r2, #4
    1cfc:	e3520b01 	cmp	r2, #1024	@ 0x400
    1d00:	03a02000 	moveq	r2, #0
    1d04:	e58c1180 	str	r1, [ip, #384]	@ 0x180
    1d08:	e58c2010 	str	r2, [ip, #16]
    1d0c:	e35d0000 	cmp	sp, #0
    1d10:	e8bd8000 	ldmfd	sp!, {pc}
    1d14:	e10f1000 	mrs	r1, CPSR
    1d18:	e38110c0 	orr	r1, r1, #192	@ 0xc0
    1d1c:	e129f001 	msr	CPSR_fc, r1
    1d20:	e59f3a30 	ldr	r3, [pc, #2608]	@ 0x2758
    1d24:	e5dc20c8 	ldrb	r2, [ip, #200]	@ 0xc8
    1d28:	e5dc10ca 	ldrb	r1, [ip, #202]	@ 0xca
    1d2c:	e35100fc 	cmp	r1, #252	@ 0xfc
    1d30:	0a000005 	beq	0x1d4c
    1d34:	e7830002 	str	r0, [r3, r2]
    1d38:	e2811004 	add	r1, r1, #4
    1d3c:	e2822004 	add	r2, r2, #4
    1d40:	e5cc10ca 	strb	r1, [ip, #202]	@ 0xca
    1d44:	e5cc20c8 	strb	r2, [ip, #200]	@ 0xc8
    1d48:	e35d0000 	cmp	sp, #0
    1d4c:	e10f1000 	mrs	r1, CPSR
    1d50:	e3c110c0 	bic	r1, r1, #192	@ 0xc0
    1d54:	e129f001 	msr	CPSR_fc, r1
    1d58:	e8bd8000 	ldmfd	sp!, {pc}
    1d5c:	e59f39f4 	ldr	r3, [pc, #2548]	@ 0x2758
    1d60:	e5dc20c8 	ldrb	r2, [ip, #200]	@ 0xc8
    1d64:	e5dc10ca 	ldrb	r1, [ip, #202]	@ 0xca
    1d68:	e35100fc 	cmp	r1, #252	@ 0xfc
    1d6c:	0a000005 	beq	0x1d88
    1d70:	e7830002 	str	r0, [r3, r2]
    1d74:	e2811004 	add	r1, r1, #4
    1d78:	e2822004 	add	r2, r2, #4
    1d7c:	e5cc10ca 	strb	r1, [ip, #202]	@ 0xca
    1d80:	e5cc20c8 	strb	r2, [ip, #200]	@ 0xc8
    1d84:	e35d0000 	cmp	sp, #0
    1d88:	e8bd8000 	ldmfd	sp!, {pc}
    1d8c:	e92d0080 	stmfd	sp!, {r7}
    1d90:	e59f79c4 	ldr	r7, [pc, #2500]	@ 0x275c
    1d94:	e59700a0 	ldr	r0, [r7, #160]	@ 0xa0
    1d98:	e3100c02 	tst	r0, #512	@ 0x200
    1d9c:	0a00001b 	beq	0x1e10
    1da0:	e92d8000 	stmfd	sp!, {pc}
    1da4:	e1a00000 	nop			@ (mov r0, r0)
    1da8:	ea00001a 	b	0x1e18
    1dac:	0a000017 	beq	0x1e10
    1db0:	e3a01c02 	mov	r1, #512	@ 0x200
    1db4:	e58710a4 	str	r1, [r7, #164]	@ 0xa4
    1db8:	e1a01c20 	lsr	r1, r0, #24
    1dbc:	e1a02820 	lsr	r2, r0, #16
    1dc0:	e1a03420 	lsr	r3, r0, #8
    1dc4:	e35100f1 	cmp	r1, #241	@ 0xf1
    1dc8:	0a00000f 	beq	0x1e0c
    1dcc:	e20100f0 	and	r0, r1, #240	@ 0xf0
    1dd0:	e35000f0 	cmp	r0, #240	@ 0xf0
    1dd4:	0a00000a 	beq	0x1e04
    1dd8:	e35000c0 	cmp	r0, #192	@ 0xc0
    1ddc:	0a000005 	beq	0x1df8
    1de0:	e35000d0 	cmp	r0, #208	@ 0xd0
    1de4:	0a000003 	beq	0x1df8
    1de8:	e5c7100c 	strb	r1, [r7, #12]
    1dec:	e5c7200c 	strb	r2, [r7, #12]
    1df0:	e5c7300c 	strb	r3, [r7, #12]
    1df4:	ea000005 	b	0x1e10
    1df8:	e5c7100c 	strb	r1, [r7, #12]
    1dfc:	e5c7200c 	strb	r2, [r7, #12]
    1e00:	ea000002 	b	0x1e10
    1e04:	e5c7100c 	strb	r1, [r7, #12]
    1e08:	ea000000 	b	0x1e10
    1e0c:	e5c7200c 	strb	r2, [r7, #12]
    1e10:	e8bd0080 	ldmfd	sp!, {r7}
    1e14:	e8bd8000 	ldmfd	sp!, {pc}
    1e18:	e10f1000 	mrs	r1, CPSR
    1e1c:	e38110c0 	orr	r1, r1, #192	@ 0xc0
    1e20:	e129f001 	msr	CPSR_fc, r1
    1e24:	e5dc10ca 	ldrb	r1, [ip, #202]	@ 0xca
    1e28:	e1b01001 	movs	r1, r1
    1e2c:	0a000007 	beq	0x1e50
    1e30:	e5dc20c9 	ldrb	r2, [ip, #201]	@ 0xc9
    1e34:	e59f391c 	ldr	r3, [pc, #2332]	@ 0x2758
    1e38:	e7930002 	ldr	r0, [r3, r2]
    1e3c:	e2822004 	add	r2, r2, #4
    1e40:	e2411004 	sub	r1, r1, #4
    1e44:	e5cc20c9 	strb	r2, [ip, #201]	@ 0xc9
    1e48:	e5cc10ca 	strb	r1, [ip, #202]	@ 0xca
    1e4c:	e35d0000 	cmp	sp, #0
    1e50:	e10f1000 	mrs	r1, CPSR
    1e54:	e3c110c0 	bic	r1, r1, #192	@ 0xc0
    1e58:	e129f001 	msr	CPSR_fc, r1
    1e5c:	e8bd8000 	ldmfd	sp!, {pc}
    1e60:	e59f38f8 	ldr	r3, [pc, #2296]	@ 0x2760
    1e64:	e5dc200c 	ldrb	r2, [ip, #12]
    1e68:	e5dc100e 	ldrb	r1, [ip, #14]
    1e6c:	e7d30001 	ldrb	r0, [r3, r1]
    1e70:	e3520040 	cmp	r2, #64	@ 0x40
    1e74:	0a000004 	beq	0x1e8c
    1e78:	e2811001 	add	r1, r1, #1
    1e7c:	e201103f 	and	r1, r1, #63	@ 0x3f
    1e80:	e5cc100e 	strb	r1, [ip, #14]
    1e84:	e2822001 	add	r2, r2, #1
    1e88:	e5cc200c 	strb	r2, [ip, #12]
    1e8c:	e8bd8000 	ldmfd	sp!, {pc}
    1e90:	e59f38c8 	ldr	r3, [pc, #2248]	@ 0x2760
    1e94:	e5dc200c 	ldrb	r2, [ip, #12]
    1e98:	e5dc100f 	ldrb	r1, [ip, #15]
    1e9c:	e7c30001 	strb	r0, [r3, r1]
    1ea0:	e2811001 	add	r1, r1, #1
    1ea4:	e201103f 	and	r1, r1, #63	@ 0x3f
    1ea8:	e5cc100f 	strb	r1, [ip, #15]
    1eac:	e2422001 	sub	r2, r2, #1
    1eb0:	e5cc200c 	strb	r2, [ip, #12]
    1eb4:	e8bd8000 	ldmfd	sp!, {pc}
    1eb8:	e59f089c 	ldr	r0, [pc, #2204]	@ 0x275c
    1ebc:	e3a01020 	mov	r1, #32
    1ec0:	e58010b8 	str	r1, [r0, #184]	@ 0xb8
    1ec4:	e8bd8000 	ldmfd	sp!, {pc}
    1ec8:	e59f088c 	ldr	r0, [pc, #2188]	@ 0x275c
    1ecc:	e3a01020 	mov	r1, #32
    1ed0:	e58010bc 	str	r1, [r0, #188]	@ 0xbc
    1ed4:	e8bd8000 	ldmfd	sp!, {pc}
    1ed8:	e5d01001 	ldrb	r1, [r0, #1]
    1edc:	e38110c0 	orr	r1, r1, #192	@ 0xc0
    1ee0:	e5c01001 	strb	r1, [r0, #1]
    1ee4:	e8bd8000 	ldmfd	sp!, {pc}
    1ee8:	e5d01001 	ldrb	r1, [r0, #1]
    1eec:	e3811040 	orr	r1, r1, #64	@ 0x40
    1ef0:	e5c01001 	strb	r1, [r0, #1]
    1ef4:	e8bd8000 	ldmfd	sp!, {pc}
    1ef8:	e5d01001 	ldrb	r1, [r0, #1]
    1efc:	e2011007 	and	r1, r1, #7
    1f00:	e3811080 	orr	r1, r1, #128	@ 0x80
    1f04:	e5c01001 	strb	r1, [r0, #1]
    1f08:	e8bd8000 	ldmfd	sp!, {pc}
    1f0c:	e5901014 	ldr	r1, [r0, #20]
    1f10:	e381101f 	orr	r1, r1, #31
    1f14:	e5801014 	str	r1, [r0, #20]
    1f18:	e92d8000 	stmfd	sp!, {pc}
    1f1c:	e1a00000 	nop			@ (mov r0, r0)
    1f20:	eafffff4 	b	0x1ef8
    1f24:	e8bd8000 	ldmfd	sp!, {pc}
    1f28:	e3a010ff 	mov	r1, #255	@ 0xff
    1f2c:	e5c01029 	strb	r1, [r0, #41]	@ 0x29
    1f30:	e3a01020 	mov	r1, #32
    1f34:	e5c01028 	strb	r1, [r0, #40]	@ 0x28
    1f38:	e59f1824 	ldr	r1, [pc, #2084]	@ 0x2764
    1f3c:	e5801040 	str	r1, [r0, #64]	@ 0x40
    1f40:	e5801044 	str	r1, [r0, #68]	@ 0x44
    1f44:	e59f181c 	ldr	r1, [pc, #2076]	@ 0x2768
    1f48:	e5801014 	str	r1, [r0, #20]
    1f4c:	e3a01080 	mov	r1, #128	@ 0x80
    1f50:	e5c01001 	strb	r1, [r0, #1]
    1f54:	e3a01000 	mov	r1, #0
    1f58:	e5801000 	str	r1, [r0]
    1f5c:	e5801004 	str	r1, [r0, #4]
    1f60:	e5801008 	str	r1, [r0, #8]
    1f64:	e580100c 	str	r1, [r0, #12]
    1f68:	e5801018 	str	r1, [r0, #24]
    1f6c:	e580101c 	str	r1, [r0, #28]
    1f70:	e5801020 	str	r1, [r0, #32]
    1f74:	e5801024 	str	r1, [r0, #36]	@ 0x24
    1f78:	e8bd8000 	ldmfd	sp!, {pc}
    1f7c:	e3a02502 	mov	r2, #8388608	@ 0x800000
    1f80:	e3a03040 	mov	r3, #64	@ 0x40
    1f84:	e0822001 	add	r2, r2, r1
    1f88:	e4820080 	str	r0, [r2], #128	@ 0x80
    1f8c:	e2533001 	subs	r3, r3, #1
    1f90:	1afffffc 	bne	0x1f88
    1f94:	e8bd8000 	ldmfd	sp!, {pc}
    1f98:	e3a02502 	mov	r2, #8388608	@ 0x800000
    1f9c:	e3a03040 	mov	r3, #64	@ 0x40
    1fa0:	e0822001 	add	r2, r2, r1
    1fa4:	e4c20080 	strb	r0, [r2], #128	@ 0x80
    1fa8:	e2533001 	subs	r3, r3, #1
    1fac:	1afffffc 	bne	0x1fa4
    1fb0:	e8bd8000 	ldmfd	sp!, {pc}
    1fb4:	e3a00502 	mov	r0, #8388608	@ 0x800000
    1fb8:	e3a02040 	mov	r2, #64	@ 0x40
    1fbc:	e92d8000 	stmfd	sp!, {pc}
    1fc0:	e1a00000 	nop			@ (mov r0, r0)
    1fc4:	ea000003 	b	0x1fd8
    1fc8:	e2800080 	add	r0, r0, #128	@ 0x80
    1fcc:	e2522001 	subs	r2, r2, #1
    1fd0:	1afffff9 	bne	0x1fbc
    1fd4:	e8bd8000 	ldmfd	sp!, {pc}
    1fd8:	e3a01902 	mov	r1, #32768	@ 0x8000
    1fdc:	e5801000 	str	r1, [r0]
    1fe0:	e59f1784 	ldr	r1, [pc, #1924]	@ 0x276c
    1fe4:	e5801028 	str	r1, [r0, #40]	@ 0x28
    1fe8:	e59f1780 	ldr	r1, [pc, #1920]	@ 0x2770
    1fec:	e580102c 	str	r1, [r0, #44]	@ 0x2c
    1ff0:	e5801030 	str	r1, [r0, #48]	@ 0x30
    1ff4:	e5801034 	str	r1, [r0, #52]	@ 0x34
    1ff8:	e5801038 	str	r1, [r0, #56]	@ 0x38
    1ffc:	e580103c 	str	r1, [r0, #60]	@ 0x3c
    2000:	e3a01000 	mov	r1, #0
    2004:	e5801004 	str	r1, [r0, #4]
    2008:	e5801008 	str	r1, [r0, #8]
    200c:	e580100c 	str	r1, [r0, #12]
    2010:	e5801018 	str	r1, [r0, #24]
    2014:	e580101c 	str	r1, [r0, #28]
    2018:	e5801020 	str	r1, [r0, #32]
    201c:	e5801024 	str	r1, [r0, #36]	@ 0x24
    2020:	e5801040 	str	r1, [r0, #64]	@ 0x40
    2024:	e5801044 	str	r1, [r0, #68]	@ 0x44
    2028:	e5801010 	str	r1, [r0, #16]
    202c:	e5801014 	str	r1, [r0, #20]
    2030:	e8bd8000 	ldmfd	sp!, {pc}
    2034:	e5dc0100 	ldrb	r0, [ip, #256]	@ 0x100
    2038:	e3500040 	cmp	r0, #64	@ 0x40
    203c:	0a00000a 	beq	0x206c
    2040:	e2800001 	add	r0, r0, #1
    2044:	e5cc0100 	strb	r0, [ip, #256]	@ 0x100
    2048:	e59f2724 	ldr	r2, [pc, #1828]	@ 0x2774
    204c:	e5dc1102 	ldrb	r1, [ip, #258]	@ 0x102
    2050:	e7d20001 	ldrb	r0, [r2, r1]
    2054:	e3a030ff 	mov	r3, #255	@ 0xff
    2058:	e7c23001 	strb	r3, [r2, r1]
    205c:	e2811001 	add	r1, r1, #1
    2060:	e201103f 	and	r1, r1, #63	@ 0x3f
    2064:	e5cc1102 	strb	r1, [ip, #258]	@ 0x102
    2068:	e35d0000 	cmp	sp, #0
    206c:	e8bd8000 	ldmfd	sp!, {pc}
    2070:	e59f26fc 	ldr	r2, [pc, #1788]	@ 0x2774
    2074:	e5dc1101 	ldrb	r1, [ip, #257]	@ 0x101
    2078:	e7c20001 	strb	r0, [r2, r1]
    207c:	e2811001 	add	r1, r1, #1
    2080:	e201103f 	and	r1, r1, #63	@ 0x3f
    2084:	e5cc1101 	strb	r1, [ip, #257]	@ 0x101
    2088:	e5dc1100 	ldrb	r1, [ip, #256]	@ 0x100
    208c:	e2411001 	sub	r1, r1, #1
    2090:	e5cc1100 	strb	r1, [ip, #256]	@ 0x100
    2094:	e8bd8000 	ldmfd	sp!, {pc}
    2098:	e21010ff 	ands	r1, r0, #255	@ 0xff
    209c:	e2011007 	and	r1, r1, #7
    20a0:	e1a01281 	lsl	r1, r1, #5
    20a4:	e59f46cc 	ldr	r4, [pc, #1740]	@ 0x2778
    20a8:	e0844001 	add	r4, r4, r1
    20ac:	e1a00420 	lsr	r0, r0, #8
    20b0:	e21000ff 	ands	r0, r0, #255	@ 0xff
    20b4:	e200007f 	and	r0, r0, #127	@ 0x7f
    20b8:	e8bd8000 	ldmfd	sp!, {pc}
    20bc:	e2002007 	and	r2, r0, #7
    20c0:	e1a02282 	lsl	r2, r2, #5
    20c4:	e59f16ac 	ldr	r1, [pc, #1708]	@ 0x2778
    20c8:	e0811002 	add	r1, r1, r2
    20cc:	e8bd8000 	ldmfd	sp!, {pc}
    20d0:	e2001007 	and	r1, r0, #7
    20d4:	e1a01301 	lsl	r1, r1, #6
    20d8:	e59f269c 	ldr	r2, [pc, #1692]	@ 0x277c
    20dc:	e0822001 	add	r2, r2, r1
    20e0:	e1a01c20 	lsr	r1, r0, #24
    20e4:	e201100f 	and	r1, r1, #15
    20e8:	e1a01101 	lsl	r1, r1, #2
    20ec:	e0811002 	add	r1, r1, r2
    20f0:	e8bd8000 	ldmfd	sp!, {pc}
    20f4:	e1a00280 	lsl	r0, r0, #5
    20f8:	e59f1678 	ldr	r1, [pc, #1656]	@ 0x2778
    20fc:	e0811000 	add	r1, r1, r0
    2100:	e5910000 	ldr	r0, [r1]
    2104:	e1b00000 	movs	r0, r0
    2108:	e8bd8000 	ldmfd	sp!, {pc}
    210c:	e1a00280 	lsl	r0, r0, #5
    2110:	e59f2660 	ldr	r2, [pc, #1632]	@ 0x2778
    2114:	e0822000 	add	r2, r2, r0
    2118:	e5920000 	ldr	r0, [r2]
    211c:	e1b00000 	movs	r0, r0
    2120:	0a000003 	beq	0x2134
    2124:	e7901001 	ldr	r1, [r0, r1]
    2128:	e1b01001 	movs	r1, r1
    212c:	0a000000 	beq	0x2134
    2130:	e0811000 	add	r1, r1, r0
    2134:	e8bd8000 	ldmfd	sp!, {pc}
    2138:	e5912000 	ldr	r2, [r1]
    213c:	e5923028 	ldr	r3, [r2, #40]	@ 0x28
    2140:	e0833002 	add	r3, r3, r2
    2144:	e4931004 	ldr	r1, [r3], #4
    2148:	e1500001 	cmp	r0, r1
    214c:	83a00000 	movhi	r0, #0
    2150:	e1a00380 	lsl	r0, r0, #7
    2154:	e0800003 	add	r0, r0, r3
    2158:	e8bd8000 	ldmfd	sp!, {pc}
    215c:	e5d00000 	ldrb	r0, [r0]
    2160:	e3100040 	tst	r0, #64	@ 0x40
    2164:	0a000001 	beq	0x2170
    2168:	e59f0610 	ldr	r0, [pc, #1552]	@ 0x2780
    216c:	ea000004 	b	0x2184
    2170:	e3100020 	tst	r0, #32
    2174:	1a000001 	bne	0x2180
    2178:	e59f0604 	ldr	r0, [pc, #1540]	@ 0x2784
    217c:	ea000000 	b	0x2184
    2180:	e59f0600 	ldr	r0, [pc, #1536]	@ 0x2788
    2184:	e8bd8000 	ldmfd	sp!, {pc}
    2188:	e92d00f0 	push	{r4, r5, r6, r7}
    218c:	e1a07000 	mov	r7, r0
    2190:	e1a06001 	mov	r6, r1
    2194:	e5d60000 	ldrb	r0, [r6]
    2198:	e3100002 	tst	r0, #2
    219c:	0a000005 	beq	0x21b8
    21a0:	e5971000 	ldr	r1, [r7]
    21a4:	e5910030 	ldr	r0, [r1, #48]	@ 0x30
    21a8:	e1b00000 	movs	r0, r0
    21ac:	0a00001b 	beq	0x2220
    21b0:	e0800001 	add	r0, r0, r1
    21b4:	ea000017 	b	0x2218
    21b8:	e5970000 	ldr	r0, [r7]
    21bc:	e5901024 	ldr	r1, [r0, #36]	@ 0x24
    21c0:	e59f25c4 	ldr	r2, [pc, #1476]	@ 0x278c
    21c4:	e0811000 	add	r1, r1, r0
    21c8:	e5d60002 	ldrb	r0, [r6, #2]
    21cc:	e5d13000 	ldrb	r3, [r1]
    21d0:	e1500003 	cmp	r0, r3
    21d4:	8a000011 	bhi	0x2220
    21d8:	e1a00080 	lsl	r0, r0, #1
    21dc:	e2800002 	add	r0, r0, #2
    21e0:	e7910000 	ldr	r0, [r1, r0]
    21e4:	e0100002 	ands	r0, r0, r2
    21e8:	0a00000c 	beq	0x2220
    21ec:	e0811000 	add	r1, r1, r0
    21f0:	e5d60003 	ldrb	r0, [r6, #3]
    21f4:	e5d13000 	ldrb	r3, [r1]
    21f8:	e1500003 	cmp	r0, r3
    21fc:	8a000007 	bhi	0x2220
    2200:	e1a00080 	lsl	r0, r0, #1
    2204:	e2800002 	add	r0, r0, #2
    2208:	e7910000 	ldr	r0, [r1, r0]
    220c:	e0100002 	ands	r0, r0, r2
    2210:	0a000002 	beq	0x2220
    2214:	e0800001 	add	r0, r0, r1
    2218:	e8bd00f0 	pop	{r4, r5, r6, r7}
    221c:	e8bd8000 	ldmfd	sp!, {pc}
    2220:	e3a00000 	mov	r0, #0
    2224:	eafffffb 	b	0x2218
    2228:	e92d00f0 	push	{r4, r5, r6, r7}
    222c:	e59c7080 	ldr	r7, [ip, #128]	@ 0x80
    2230:	e59f6558 	ldr	r6, [pc, #1368]	@ 0x2790
    2234:	e3a05000 	mov	r5, #0
    2238:	e1a04000 	mov	r4, r0
    223c:	e4960004 	ldr	r0, [r6], #4
    2240:	e3700001 	cmn	r0, #1
    2244:	0a00000d 	beq	0x2280
    2248:	e7d70001 	ldrb	r0, [r7, r1]
    224c:	e1500004 	cmp	r0, r4
    2250:	1a000008 	bne	0x2278
    2254:	e3510012 	cmp	r1, #18
    2258:	05970038 	ldreq	r0, [r7, #56]	@ 0x38
    225c:	15970034 	ldrne	r0, [r7, #52]	@ 0x34
    2260:	e1b00000 	movs	r0, r0
    2264:	0a000008 	beq	0x228c
    2268:	e0871000 	add	r1, r7, r0
    226c:	e1a00005 	mov	r0, r5
    2270:	e35d0000 	cmp	sp, #0
    2274:	ea000004 	b	0x228c
    2278:	e5970008 	ldr	r0, [r7, #8]
    227c:	e0877000 	add	r7, r7, r0
    2280:	e2855001 	add	r5, r5, #1
    2284:	e3550008 	cmp	r5, #8
    2288:	1affffeb 	bne	0x223c
    228c:	e8bd00f0 	pop	{r4, r5, r6, r7}
    2290:	e8bd8000 	ldmfd	sp!, {pc}
    2294:	e59f24dc 	ldr	r2, [pc, #1244]	@ 0x2778
    2298:	e3a03000 	mov	r3, #0
    229c:	e5921000 	ldr	r1, [r2]
    22a0:	e1b01001 	movs	r1, r1
    22a4:	0a000002 	beq	0x22b4
    22a8:	e5911004 	ldr	r1, [r1, #4]
    22ac:	e1500001 	cmp	r0, r1
    22b0:	0a000004 	beq	0x22c8
    22b4:	e2822020 	add	r2, r2, #32
    22b8:	e2833001 	add	r3, r3, #1
    22bc:	e3530008 	cmp	r3, #8
    22c0:	1afffff5 	bne	0x229c
    22c4:	e8bd8000 	ldmfd	sp!, {pc}
    22c8:	e5921000 	ldr	r1, [r2]
    22cc:	e35d0000 	cmp	sp, #0
    22d0:	e8bd8000 	ldmfd	sp!, {pc}
    22d4:	e92d00f0 	push	{r4, r5, r6, r7}
    22d8:	e1a07000 	mov	r7, r0
    22dc:	e3a00000 	mov	r0, #0
    22e0:	e5c70013 	strb	r0, [r7, #19]
    22e4:	e5c70014 	strb	r0, [r7, #20]
    22e8:	e5c70015 	strb	r0, [r7, #21]
    22ec:	e5c70016 	strb	r0, [r7, #22]
    22f0:	e5c70024 	strb	r0, [r7, #36]	@ 0x24
    22f4:	e5c70026 	strb	r0, [r7, #38]	@ 0x26
    22f8:	e3e00000 	mvn	r0, #0
    22fc:	e5c70025 	strb	r0, [r7, #37]	@ 0x25
    2300:	e5870028 	str	r0, [r7, #40]	@ 0x28
    2304:	e3a00040 	mov	r0, #64	@ 0x40
    2308:	e5c70012 	strb	r0, [r7, #18]
    230c:	e3a0003c 	mov	r0, #60	@ 0x3c
    2310:	e5c70026 	strb	r0, [r7, #38]	@ 0x26
    2314:	e5976004 	ldr	r6, [r7, #4]
    2318:	e1b06006 	movs	r6, r6
    231c:	0a000010 	beq	0x2364
    2320:	e59f5464 	ldr	r5, [pc, #1124]	@ 0x278c
    2324:	e3a04008 	mov	r4, #8
    2328:	e92d8000 	stmfd	sp!, {pc}
    232c:	e1a00000 	nop			@ (mov r0, r0)
    2330:	ea00000d 	b	0x236c
    2334:	e3a0400a 	mov	r4, #10
    2338:	e92d8000 	stmfd	sp!, {pc}
    233c:	e1a00000 	nop			@ (mov r0, r0)
    2340:	ea000009 	b	0x236c
    2344:	e3a0400c 	mov	r4, #12
    2348:	e92d8000 	stmfd	sp!, {pc}
    234c:	e1a00000 	nop			@ (mov r0, r0)
    2350:	ea000005 	b	0x236c
    2354:	e3a0400e 	mov	r4, #14
    2358:	e92d8000 	stmfd	sp!, {pc}
    235c:	e1a00000 	nop			@ (mov r0, r0)
    2360:	ea000001 	b	0x236c
    2364:	e8bd00f0 	pop	{r4, r5, r6, r7}
    2368:	e8bd8000 	ldmfd	sp!, {pc}
    236c:	e7960004 	ldr	r0, [r6, r4]
    2370:	e0100005 	ands	r0, r0, r5
    2374:	0a000003 	beq	0x2388
    2378:	e0864000 	add	r4, r6, r0
    237c:	e3a00000 	mov	r0, #0
    2380:	e5c4002a 	strb	r0, [r4, #42]	@ 0x2a
    2384:	e5c4002b 	strb	r0, [r4, #43]	@ 0x2b
    2388:	e8bd8000 	ldmfd	sp!, {pc}
    238c:	e3100102 	tst	r0, #-2147483648	@ 0x80000000
    2390:	1a000003 	bne	0x23a4
    2394:	e92d8000 	stmfd	sp!, {pc}
    2398:	e1a00000 	nop			@ (mov r0, r0)
    239c:	ea000008 	b	0x23c4
    23a0:	e8bd8000 	ldmfd	sp!, {pc}
    23a4:	e1e00000 	mvn	r0, r0
    23a8:	e2800001 	add	r0, r0, #1
    23ac:	e92d8000 	stmfd	sp!, {pc}
    23b0:	e1a00000 	nop			@ (mov r0, r0)
    23b4:	ea000002 	b	0x23c4
    23b8:	e2400001 	sub	r0, r0, #1
    23bc:	e1e00000 	mvn	r0, r0
    23c0:	e8bd8000 	ldmfd	sp!, {pc}
    23c4:	e3a02000 	mov	r2, #0
    23c8:	e3a03020 	mov	r3, #32
    23cc:	e0900000 	adds	r0, r0, r0
    23d0:	e0a22002 	adc	r2, r2, r2
    23d4:	e1520001 	cmp	r2, r1
    23d8:	20422001 	subcs	r2, r2, r1
    23dc:	23800001 	orrcs	r0, r0, #1
    23e0:	e2533001 	subs	r3, r3, #1
    23e4:	1afffff8 	bne	0x23cc
    23e8:	e1a01002 	mov	r1, r2
    23ec:	e8bd8000 	ldmfd	sp!, {pc}
    23f0:	e1b02002 	movs	r2, r2
    23f4:	12822001 	addne	r2, r2, #1
    23f8:	e3110080 	tst	r1, #128	@ 0x80
    23fc:	1a000009 	bne	0x2428
    2400:	e1b01001 	movs	r1, r1
    2404:	12811001 	addne	r1, r1, #1
    2408:	e0010193 	mul	r1, r3, r1
    240c:	e1a013a1 	lsr	r1, r1, #7
    2410:	e0010192 	mul	r1, r2, r1
    2414:	e1a013a1 	lsr	r1, r1, #7
    2418:	e0800001 	add	r0, r0, r1
    241c:	e1500003 	cmp	r0, r3
    2420:	81a00003 	movhi	r0, r3
    2424:	e8bd8000 	ldmfd	sp!, {pc}
    2428:	e1a01c01 	lsl	r1, r1, #24
    242c:	e1a01c41 	asr	r1, r1, #24
    2430:	e0010193 	mul	r1, r3, r1
    2434:	e1a013c1 	asr	r1, r1, #7
    2438:	e0010192 	mul	r1, r2, r1
    243c:	e1a013c1 	asr	r1, r1, #7
    2440:	e0900001 	adds	r0, r0, r1
    2444:	43a00000 	movmi	r0, #0
    2448:	e8bd8000 	ldmfd	sp!, {pc}
    244c:	e59f1340 	ldr	r1, [pc, #832]	@ 0x2794
    2450:	e0000091 	mul	r0, r1, r0
    2454:	e1a003a0 	lsr	r0, r0, #7
    2458:	e1500001 	cmp	r0, r1
    245c:	81a00001 	movhi	r0, r1
    2460:	e3a01c0e 	mov	r1, #3584	@ 0xe00
    2464:	e0800001 	add	r0, r0, r1
    2468:	e8bd8000 	ldmfd	sp!, {pc}
    246c:	e59f1324 	ldr	r1, [pc, #804]	@ 0x2798
    2470:	e7d10000 	ldrb	r0, [r1, r0]
    2474:	e22000ff 	eor	r0, r0, #255	@ 0xff
    2478:	e8bd8000 	ldmfd	sp!, {pc}
    247c:	e200000f 	and	r0, r0, #15
    2480:	e201100f 	and	r1, r1, #15
    2484:	e1a00200 	lsl	r0, r0, #4
    2488:	e1800001 	orr	r0, r0, r1
    248c:	e8bd8000 	ldmfd	sp!, {pc}
    2490:	e59f1304 	ldr	r1, [pc, #772]	@ 0x279c
    2494:	e1a00120 	lsr	r0, r0, #2
    2498:	e7d10000 	ldrb	r0, [r1, r0]
    249c:	e8bd8000 	ldmfd	sp!, {pc}
    24a0:	1d1e1f1f 	ldcne	15, cr1, [lr, #-124]	@ 0xffffff84
    24a4:	191a1b1c 	ldmdbne	sl, {r2, r3, r4, r8, r9, fp, ip}
    24a8:	15161718 	ldrne	r1, [r6, #-1816]	@ 0xfffff8e8
    24ac:	11121314 	tstne	r2, r4, lsl r3
    24b0:	03020110 	movweq	r0, #8464	@ 0x2110
    24b4:	07060504 	streq	r0, [r6, -r4, lsl #10]
    24b8:	0b0a0908 	bleq	0x2848e0
    24bc:	0f0e0d0c 	svceq	0x000e0d0c
    24c0:	e1a03001 	mov	r3, r1
    24c4:	e92d8000 	stmfd	sp!, {pc}
    24c8:	e1a00000 	nop			@ (mov r0, r0)
    24cc:	ea000006 	b	0x24ec
    24d0:	e0000093 	mul	r0, r3, r0
    24d4:	e1a00420 	lsr	r0, r0, #8
    24d8:	e0010193 	mul	r1, r3, r1
    24dc:	e1a01421 	lsr	r1, r1, #8
    24e0:	e22000ff 	eor	r0, r0, #255	@ 0xff
    24e4:	e22110ff 	eor	r1, r1, #255	@ 0xff
    24e8:	e8bd8000 	ldmfd	sp!, {pc}
    24ec:	e59f22ac 	ldr	r2, [pc, #684]	@ 0x27a0
    24f0:	e1a00080 	lsl	r0, r0, #1
    24f4:	e0822000 	add	r2, r2, r0
    24f8:	e5d20000 	ldrb	r0, [r2]
    24fc:	e5d21001 	ldrb	r1, [r2, #1]
    2500:	e8bd8000 	ldmfd	sp!, {pc}
    2504:	fff7ffff 			@ <UNDEFINED> instruction: 0xfff7ffff
    2508:	ffe7ffef 			@ <UNDEFINED> instruction: 0xffe7ffef
    250c:	ffd7ffdf 			@ <UNDEFINED> instruction: 0xffd7ffdf
    2510:	ffc7ffcf 			@ <UNDEFINED> instruction: 0xffc7ffcf
    2514:	ffb7ffbf 			@ <UNDEFINED> instruction: 0xffb7ffbf
    2518:	ffa7ffaf 			@ <UNDEFINED> instruction: 0xffa7ffaf
    251c:	ff97ff9f 			@ <UNDEFINED> instruction: 0xff97ff9f
    2520:	ff00ff8f 			@ <UNDEFINED> instruction: 0xff00ff8f
    2524:	f7ffffff 			@ <UNDEFINED> instruction: 0xf7ffffff
    2528:	e7ffefff 	udf	#65279	@ 0xfeff
    252c:	d7ffdfff 			@ <UNDEFINED> instruction: 0xd7ffdfff
    2530:	c7ffcfff 			@ <UNDEFINED> instruction: 0xc7ffcfff
    2534:	b7ffbfff 			@ <UNDEFINED> instruction: 0xb7ffbfff
    2538:	a7ffafff 			@ <UNDEFINED> instruction: 0xa7ffafff
    253c:	97ff9fff 			@ <UNDEFINED> instruction: 0x97ff9fff
    2540:	00ff8fff 	ldrshteq	r8, [pc], #255
    2544:	e3a02000 	mov	r2, #0
    2548:	e3a01b03 	mov	r1, #3072	@ 0xc00
    254c:	e1b00000 	movs	r0, r0
    2550:	43e02000 	mvnmi	r2, #0
    2554:	459f1248 	ldrmi	r1, [pc, #584]	@ 0x27a4
    2558:	4a00000c 	bmi	0x2590
    255c:	e1500001 	cmp	r0, r1
    2560:	20400001 	subcs	r0, r0, r1
    2564:	22822001 	addcs	r2, r2, #1
    2568:	8afffffb 	bhi	0x255c
    256c:	e1a000a0 	lsr	r0, r0, #1
    2570:	e59f1230 	ldr	r1, [pc, #560]	@ 0x27a8
    2574:	e7910000 	ldr	r0, [r1, r0]
    2578:	e59f120c 	ldr	r1, [pc, #524]	@ 0x278c
    257c:	e0000001 	and	r0, r0, r1
    2580:	e202200f 	and	r2, r2, #15
    2584:	e1a02582 	lsl	r2, r2, #11
    2588:	e0800002 	add	r0, r0, r2
    258c:	e8bd8000 	ldmfd	sp!, {pc}
    2590:	e1500001 	cmp	r0, r1
    2594:	d0400001 	suble	r0, r0, r1
    2598:	d2422001 	suble	r2, r2, #1
    259c:	bafffffb 	blt	0x2590
    25a0:	e1a000c0 	asr	r0, r0, #1
    25a4:	e59f1200 	ldr	r1, [pc, #512]	@ 0x27ac
    25a8:	eafffff1 	b	0x2574
    25ac:	e0800001 	add	r0, r0, r1
    25b0:	e3100b01 	tst	r0, #1024	@ 0x400
    25b4:	12800b02 	addne	r0, r0, #2048	@ 0x800
    25b8:	159f11f0 	ldrne	r1, [pc, #496]	@ 0x27b0
    25bc:	10000001 	andne	r0, r0, r1
    25c0:	e8bd8000 	ldmfd	sp!, {pc}
    25c4:	e2411040 	sub	r1, r1, #64	@ 0x40
    25c8:	e0800001 	add	r0, r0, r1
    25cc:	e1b00000 	movs	r0, r0
    25d0:	43a00000 	movmi	r0, #0
    25d4:	e1500002 	cmp	r0, r2
    25d8:	81a00002 	movhi	r0, r2
    25dc:	e8bd8000 	ldmfd	sp!, {pc}
    25e0:	e1a01081 	lsl	r1, r1, #1
    25e4:	e2411080 	sub	r1, r1, #128	@ 0x80
    25e8:	eafffff6 	b	0x25c8
    25ec:	e92d0010 	stmfd	sp!, {r4}
    25f0:	e1a03000 	mov	r3, r0
    25f4:	e1a04001 	mov	r4, r1
    25f8:	e5d30014 	ldrb	r0, [r3, #20]
    25fc:	e5d31016 	ldrb	r1, [r3, #22]
    2600:	e5d42000 	ldrb	r2, [r4]
    2604:	e3120001 	tst	r2, #1
    2608:	15d30015 	ldrbne	r0, [r3, #21]
    260c:	15d31017 	ldrbne	r1, [r3, #23]
    2610:	e3a0207f 	mov	r2, #127	@ 0x7f
    2614:	e92d8000 	stmfd	sp!, {pc}
    2618:	e1a00000 	nop			@ (mov r0, r0)
    261c:	eaffffef 	b	0x25e0
    2620:	e8bd0010 	ldmfd	sp!, {r4}
    2624:	e8bd8000 	ldmfd	sp!, {pc}
    2628:	e2500040 	subs	r0, r0, #64	@ 0x40
    262c:	0a000005 	beq	0x2648
    2630:	52800001 	addpl	r0, r0, #1
    2634:	51a01401 	lslpl	r1, r1, #8
    2638:	41a02402 	lslmi	r2, r2, #8
    263c:	41a01002 	movmi	r1, r2
    2640:	e0000091 	mul	r0, r1, r0
    2644:	e1a00340 	asr	r0, r0, #6
    2648:	e8bd8000 	ldmfd	sp!, {pc}
    264c:	e3a01c06 	mov	r1, #1536	@ 0x600
    2650:	e0000091 	mul	r0, r1, r0
    2654:	e1a00440 	asr	r0, r0, #8
    2658:	e92d0001 	stmfd	sp!, {r0}
    265c:	e92d8000 	stmfd	sp!, {pc}
    2660:	e1a00000 	nop			@ (mov r0, r0)
    2664:	ea000006 	b	0x2684
    2668:	e1a01c01 	lsl	r1, r1, #24
    266c:	e1a01c41 	asr	r1, r1, #24
    2670:	e8bd0001 	ldmfd	sp!, {r0}
    2674:	e0000091 	mul	r0, r1, r0
    2678:	e1a003c0 	asr	r0, r0, #7
    267c:	e3c00003 	bic	r0, r0, #3
    2680:	e8bd8000 	ldmfd	sp!, {pc}
    2684:	e59c003c 	ldr	r0, [ip, #60]	@ 0x3c
    2688:	e5901510 	ldr	r1, [r0, #1296]	@ 0x510
    268c:	e2800004 	add	r0, r0, #4
    2690:	e3500901 	cmp	r0, #16384	@ 0x4000
    2694:	03a00000 	moveq	r0, #0
    2698:	e58c003c 	str	r0, [ip, #60]	@ 0x3c
    269c:	e1a00821 	lsr	r0, r1, #16
    26a0:	e21000ff 	ands	r0, r0, #255	@ 0xff
    26a4:	03a00027 	moveq	r0, #39	@ 0x27
    26a8:	e1a02421 	lsr	r2, r1, #8
    26ac:	e21220ff 	ands	r2, r2, #255	@ 0xff
    26b0:	03a02011 	moveq	r2, #17
    26b4:	e21110ff 	ands	r1, r1, #255	@ 0xff
    26b8:	03a0102f 	moveq	r1, #47	@ 0x2f
    26bc:	e3a03881 	mov	r3, #8454144	@ 0x810000
    26c0:	e5933004 	ldr	r3, [r3, #4]
    26c4:	e20330ff 	and	r3, r3, #255	@ 0xff
    26c8:	e0000091 	mul	r0, r1, r0
    26cc:	e0000092 	mul	r0, r2, r0
    26d0:	e0000093 	mul	r0, r3, r0
    26d4:	e1a01620 	lsr	r1, r0, #12
    26d8:	e20110ff 	and	r1, r1, #255	@ 0xff
    26dc:	e8bd8000 	ldmfd	sp!, {pc}
    26e0:	e5dc101f 	ldrb	r1, [ip, #31]
    26e4:	e3510080 	cmp	r1, #128	@ 0x80
    26e8:	1a000008 	bne	0x2710
    26ec:	e92d0010 	stmfd	sp!, {r4}
    26f0:	e1a04000 	mov	r4, r0
    26f4:	e5d40025 	ldrb	r0, [r4, #37]	@ 0x25
    26f8:	e5d41024 	ldrb	r1, [r4, #36]	@ 0x24
    26fc:	e92d8000 	stmfd	sp!, {pc}
    2700:	e1a00000 	nop			@ (mov r0, r0)
    2704:	ea000002 	b	0x2714
    2708:	e5c40025 	strb	r0, [r4, #37]	@ 0x25
    270c:	e8bd0010 	ldmfd	sp!, {r4}
    2710:	e8bd8000 	ldmfd	sp!, {pc}
    2714:	e5dc201e 	ldrb	r2, [ip, #30]
    2718:	e352007f 	cmp	r2, #127	@ 0x7f
    271c:	0a000003 	beq	0x2730
    2720:	e59f308c 	ldr	r3, [pc, #140]	@ 0x27b4
    2724:	e7d32001 	ldrb	r2, [r3, r1]
    2728:	e0500002 	subs	r0, r0, r2
    272c:	43a00000 	movmi	r0, #0
    2730:	e8bd8000 	ldmfd	sp!, {pc}
    2734:	02010100 	andeq	r0, r1, #0, 2
    2738:	02020202 	andeq	r0, r2, #536870912	@ 0x20000000
    273c:	02020202 	andeq	r0, r2, #536870912	@ 0x20000000
    2740:	02020202 	andeq	r0, r2, #536870912	@ 0x20000000
    2744:	02010100 	andeq	r0, r1, #0, 2
    2748:	02020202 	andeq	r0, r2, #536870912	@ 0x20000000
    274c:	02020202 	andeq	r0, r2, #536870912	@ 0x20000000
    2750:	02020202 	andeq	r0, r2, #536870912	@ 0x20000000
    2754:	0000c400 	andeq	ip, r0, r0, lsl #8
    2758:	0000ea00 	andeq	lr, r0, r0, lsl #20
    275c:	00802800 	addeq	r2, r0, r0, lsl #16
    2760:	0000ed80 	andeq	lr, r0, r0, lsl #27
    2764:	00001f1f 	andeq	r1, r0, pc, lsl pc
    2768:	00003c1f 	andeq	r3, r0, pc, lsl ip
    276c:	0000ff04 	andeq	pc, r0, r4, lsl #30
    2770:	00001ff7 	strdeq	r1, [r0], -r7
    2774:	0000edc0 	andeq	lr, r0, r0, asr #27
    2778:	0000eb00 	andeq	lr, r0, r0, lsl #22
    277c:	0000e800 	andeq	lr, r0, r0, lsl #16
    2780:	0000c308 	andeq	ip, r0, r8, lsl #6
    2784:	0000c304 	andeq	ip, r0, r4, lsl #6
    2788:	0000c30c 	andeq	ip, r0, ip, lsl #6
    278c:	0000ffff 	strdeq	pc, [r0], -pc	@ <UNPREDICTABLE>
    2790:	0000c240 	andeq	ip, r0, r0, asr #4
    2794:	000011f7 	strdeq	r1, [r0], -r7
    2798:	0000811c 	andeq	r8, r0, ip, lsl r1
    279c:	000033a0 	andeq	r3, r0, r0, lsr #7
    27a0:	00003404 	andeq	r3, r0, r4, lsl #8
    27a4:	fffff400 			@ <UNDEFINED> instruction: 0xfffff400
    27a8:	00008320 	andeq	r8, r0, r0, lsr #6
    27ac:	00008920 	andeq	r8, r0, r0, lsr #18
    27b0:	00007bff 	strdeq	r7, [r0], -pc	@ <UNPREDICTABLE>
    27b4:	00003634 	andeq	r3, r0, r4, lsr r6
    27b8:	e59f0f1c 	ldr	r0, [pc, #3868]	@ 0x36dc
    27bc:	e59f1f1c 	ldr	r1, [pc, #3868]	@ 0x36e0
    27c0:	e92d8000 	stmfd	sp!, {pc}
    27c4:	e1a00000 	nop			@ (mov r0, r0)
    27c8:	eafffcc9 	b	0x1af4
    27cc:	e59f0f10 	ldr	r0, [pc, #3856]	@ 0x36e4
    27d0:	e92d8000 	stmfd	sp!, {pc}
    27d4:	e1a00000 	nop			@ (mov r0, r0)
    27d8:	eafffc2f 	b	0x189c
    27dc:	ea000467 	b	0x3980
    27e0:	e5da0000 	ldrb	r0, [sl]
    27e4:	e3100008 	tst	r0, #8
    27e8:	1a00000f 	bne	0x282c
    27ec:	e3100001 	tst	r0, #1
    27f0:	0a000002 	beq	0x2800
    27f4:	e3800002 	orr	r0, r0, #2
    27f8:	e5ca0000 	strb	r0, [sl]
    27fc:	ea00000a 	b	0x282c
    2800:	e3100020 	tst	r0, #32
    2804:	1a000008 	bne	0x282c
    2808:	e3800020 	orr	r0, r0, #32
    280c:	e5ca0000 	strb	r0, [sl]
    2810:	e1a0000b 	mov	r0, fp
    2814:	e92d8000 	stmfd	sp!, {pc}
    2818:	e1a00000 	nop			@ (mov r0, r0)
    281c:	eafffdb5 	b	0x1ef8
    2820:	e92d8000 	stmfd	sp!, {pc}
    2824:	e1a00000 	nop			@ (mov r0, r0)
    2828:	eafffb22 	b	0x14b8
    282c:	e8bd8000 	ldmfd	sp!, {pc}
    2830:	e1a07000 	mov	r7, r0
    2834:	e1a0000b 	mov	r0, fp
    2838:	e1a00300 	lsl	r0, r0, #6
    283c:	e59f6ea4 	ldr	r6, [pc, #3748]	@ 0x36e8
    2840:	e0866000 	add	r6, r6, r0
    2844:	e5960020 	ldr	r0, [r6, #32]
    2848:	e59f1e9c 	ldr	r1, [pc, #3740]	@ 0x36ec
    284c:	e1100001 	tst	r0, r1
    2850:	0a000004 	beq	0x2868
    2854:	e1a00007 	mov	r0, r7
    2858:	e1a01006 	mov	r1, r6
    285c:	e92d8000 	stmfd	sp!, {pc}
    2860:	e1a00000 	nop			@ (mov r0, r0)
    2864:	ea000000 	b	0x286c
    2868:	e8bd8000 	ldmfd	sp!, {pc}
    286c:	e1a07000 	mov	r7, r0
    2870:	e1a06820 	lsr	r6, r0, #16
    2874:	e21660ff 	ands	r6, r6, #255	@ 0xff
    2878:	e1a05001 	mov	r5, r1
    287c:	e1a00006 	mov	r0, r6
    2880:	e1a01005 	mov	r1, r5
    2884:	e92d8000 	stmfd	sp!, {pc}
    2888:	e1a00000 	nop			@ (mov r0, r0)
    288c:	ea000021 	b	0x2918
    2890:	e5d50025 	ldrb	r0, [r5, #37]	@ 0x25
    2894:	e1500006 	cmp	r0, r6
    2898:	1a00001b 	bne	0x290c
    289c:	e5d50024 	ldrb	r0, [r5, #36]	@ 0x24
    28a0:	e1b00000 	movs	r0, r0
    28a4:	0a000018 	beq	0x290c
    28a8:	e92d8000 	stmfd	sp!, {pc}
    28ac:	e1a00000 	nop			@ (mov r0, r0)
    28b0:	ea000016 	b	0x2910
    28b4:	e1a04000 	mov	r4, r0
    28b8:	e10f0000 	mrs	r0, CPSR
    28bc:	e38000c0 	orr	r0, r0, #192	@ 0xc0
    28c0:	e129f000 	msr	CPSR_fc, r0
    28c4:	e59f0e24 	ldr	r0, [pc, #3620]	@ 0x36f0
    28c8:	e92d8000 	stmfd	sp!, {pc}
    28cc:	e1a00000 	nop			@ (mov r0, r0)
    28d0:	eafffceb 	b	0x1c84
    28d4:	e59f0e18 	ldr	r0, [pc, #3608]	@ 0x36f4
    28d8:	e0070000 	and	r0, r7, r0
    28dc:	e3800209 	orr	r0, r0, #-1879048192	@ 0x90000000
    28e0:	e5d51027 	ldrb	r1, [r5, #39]	@ 0x27
    28e4:	e1a01401 	lsl	r1, r1, #8
    28e8:	e1a04804 	lsl	r4, r4, #16
    28ec:	e1800001 	orr	r0, r0, r1
    28f0:	e1800004 	orr	r0, r0, r4
    28f4:	e92d8000 	stmfd	sp!, {pc}
    28f8:	e1a00000 	nop			@ (mov r0, r0)
    28fc:	eafffce0 	b	0x1c84
    2900:	e10f0000 	mrs	r0, CPSR
    2904:	e3c000c0 	bic	r0, r0, #192	@ 0xc0
    2908:	e129f000 	msr	CPSR_fc, r0
    290c:	e8bd8000 	ldmfd	sp!, {pc}
    2910:	e5d50028 	ldrb	r0, [r5, #40]	@ 0x28
    2914:	e8bd8000 	ldmfd	sp!, {pc}
    2918:	e92d0030 	push	{r4, r5}
    291c:	e1a04000 	mov	r4, r0
    2920:	e1a05001 	mov	r5, r1
    2924:	e5d50028 	ldrb	r0, [r5, #40]	@ 0x28
    2928:	e5d51029 	ldrb	r1, [r5, #41]	@ 0x29
    292c:	e5d5202a 	ldrb	r2, [r5, #42]	@ 0x2a
    2930:	e5d5302b 	ldrb	r3, [r5, #43]	@ 0x2b
    2934:	e1530004 	cmp	r3, r4
    2938:	0a00000d 	beq	0x2974
    293c:	e1520004 	cmp	r2, r4
    2940:	0a00000a 	beq	0x2970
    2944:	e1510004 	cmp	r1, r4
    2948:	0a000005 	beq	0x2964
    294c:	e1500004 	cmp	r0, r4
    2950:	1a00000d 	bne	0x298c
    2954:	e5c51028 	strb	r1, [r5, #40]	@ 0x28
    2958:	e5c52029 	strb	r2, [r5, #41]	@ 0x29
    295c:	e5c5302a 	strb	r3, [r5, #42]	@ 0x2a
    2960:	ea000003 	b	0x2974
    2964:	e5c52029 	strb	r2, [r5, #41]	@ 0x29
    2968:	e5c5302a 	strb	r3, [r5, #42]	@ 0x2a
    296c:	ea000000 	b	0x2974
    2970:	e5c5302a 	strb	r3, [r5, #42]	@ 0x2a
    2974:	e3a000ff 	mov	r0, #255	@ 0xff
    2978:	e5c5002b 	strb	r0, [r5, #43]	@ 0x2b
    297c:	e5d50024 	ldrb	r0, [r5, #36]	@ 0x24
    2980:	e1b00000 	movs	r0, r0
    2984:	12400001 	subne	r0, r0, #1
    2988:	e5c50024 	strb	r0, [r5, #36]	@ 0x24
    298c:	e8bd0030 	pop	{r4, r5}
    2990:	e8bd8000 	ldmfd	sp!, {pc}
    2994:	e1a01420 	lsr	r1, r0, #8
    2998:	e21110ff 	ands	r1, r1, #255	@ 0xff
    299c:	0affff85 	beq	0x27b8
    29a0:	e2000007 	and	r0, r0, #7
    29a4:	e1a00280 	lsl	r0, r0, #5
    29a8:	e59f1d48 	ldr	r1, [pc, #3400]	@ 0x36f8
    29ac:	e0811000 	add	r1, r1, r0
    29b0:	e5910000 	ldr	r0, [r1]
    29b4:	e58c00a4 	str	r0, [ip, #164]	@ 0xa4
    29b8:	e58c10b4 	str	r1, [ip, #180]	@ 0xb4
    29bc:	e3a00000 	mov	r0, #0
    29c0:	e5cc00a2 	strb	r0, [ip, #162]	@ 0xa2
    29c4:	e5cc00a3 	strb	r0, [ip, #163]	@ 0xa3
    29c8:	e5cc00a1 	strb	r0, [ip, #161]	@ 0xa1
    29cc:	e59f0d28 	ldr	r0, [pc, #3368]	@ 0x36fc
    29d0:	e92d8000 	stmfd	sp!, {pc}
    29d4:	e1a00000 	nop			@ (mov r0, r0)
    29d8:	eafffbaf 	b	0x189c
    29dc:	e92d8000 	stmfd	sp!, {pc}
    29e0:	e1a00000 	nop			@ (mov r0, r0)
    29e4:	eafffac1 	b	0x14f0
    29e8:	ea0003e4 	b	0x3980
    29ec:	e92d0700 	push	{r8, r9, sl}
    29f0:	e5ccb0a0 	strb	fp, [ip, #160]	@ 0xa0
    29f4:	e1a0b30b 	lsl	fp, fp, #6
    29f8:	e59f0ce8 	ldr	r0, [pc, #3304]	@ 0x36e8
    29fc:	e080000b 	add	r0, r0, fp
    2a00:	e1a0b000 	mov	fp, r0
    2a04:	e59ba004 	ldr	sl, [fp, #4]
    2a08:	e5db0000 	ldrb	r0, [fp]
    2a0c:	e3100080 	tst	r0, #128	@ 0x80
    2a10:	0a000021 	beq	0x2a9c
    2a14:	e59b201c 	ldr	r2, [fp, #28]
    2a18:	e5dc00e2 	ldrb	r0, [ip, #226]	@ 0xe2
    2a1c:	e5d21004 	ldrb	r1, [r2, #4]
    2a20:	e1500001 	cmp	r0, r1
    2a24:	3a00001c 	bcc	0x2a9c
    2a28:	e5d21005 	ldrb	r1, [r2, #5]
    2a2c:	e1500001 	cmp	r0, r1
    2a30:	8a000019 	bhi	0x2a9c
    2a34:	e5dc00e1 	ldrb	r0, [ip, #225]	@ 0xe1
    2a38:	e5d21006 	ldrb	r1, [r2, #6]
    2a3c:	e1500001 	cmp	r0, r1
    2a40:	3a000015 	bcc	0x2a9c
    2a44:	e5d21007 	ldrb	r1, [r2, #7]
    2a48:	e1500001 	cmp	r0, r1
    2a4c:	8a000012 	bhi	0x2a9c
    2a50:	e92d8000 	stmfd	sp!, {pc}
    2a54:	e1a00000 	nop			@ (mov r0, r0)
    2a58:	ea00012f 	b	0x2f1c
    2a5c:	e59a0008 	ldr	r0, [sl, #8]
    2a60:	e92d8000 	stmfd	sp!, {pc}
    2a64:	e1a00000 	nop			@ (mov r0, r0)
    2a68:	ea00000d 	b	0x2aa4
    2a6c:	e59a000a 	ldr	r0, [sl, #10]
    2a70:	e92d8000 	stmfd	sp!, {pc}
    2a74:	e1a00000 	nop			@ (mov r0, r0)
    2a78:	ea000009 	b	0x2aa4
    2a7c:	e59a000c 	ldr	r0, [sl, #12]
    2a80:	e92d8000 	stmfd	sp!, {pc}
    2a84:	e1a00000 	nop			@ (mov r0, r0)
    2a88:	ea000005 	b	0x2aa4
    2a8c:	e59a000e 	ldr	r0, [sl, #14]
    2a90:	e92d8000 	stmfd	sp!, {pc}
    2a94:	e1a00000 	nop			@ (mov r0, r0)
    2a98:	ea000001 	b	0x2aa4
    2a9c:	e8bd0700 	pop	{r8, r9, sl}
    2aa0:	e8bd8000 	ldmfd	sp!, {pc}
    2aa4:	e92d0400 	stmfd	sp!, {sl}
    2aa8:	e59f1c50 	ldr	r1, [pc, #3152]	@ 0x3700
    2aac:	e0100001 	ands	r0, r0, r1
    2ab0:	0a00004f 	beq	0x2bf4
    2ab4:	e08a9000 	add	r9, sl, r0
    2ab8:	e59ca0b4 	ldr	sl, [ip, #180]	@ 0xb4
    2abc:	e58c90a8 	str	r9, [ip, #168]	@ 0xa8
    2ac0:	e59b1004 	ldr	r1, [fp, #4]
    2ac4:	e5d10000 	ldrb	r0, [r1]
    2ac8:	e3500001 	cmp	r0, #1
    2acc:	0a00002a 	beq	0x2b7c
    2ad0:	e3500002 	cmp	r0, #2
    2ad4:	0a000019 	beq	0x2b40
    2ad8:	e5dc00e1 	ldrb	r0, [ip, #225]	@ 0xe1
    2adc:	e5d91002 	ldrb	r1, [r9, #2]
    2ae0:	e1500001 	cmp	r0, r1
    2ae4:	3a000042 	bcc	0x2bf4
    2ae8:	e5d91003 	ldrb	r1, [r9, #3]
    2aec:	e1500001 	cmp	r0, r1
    2af0:	8a00003f 	bhi	0x2bf4
    2af4:	e2898040 	add	r8, r9, #64	@ 0x40
    2af8:	e58c80ac 	str	r8, [ip, #172]	@ 0xac
    2afc:	e5d97000 	ldrb	r7, [r9]
    2b00:	e5dc00e2 	ldrb	r0, [ip, #226]	@ 0xe2
    2b04:	e5d81000 	ldrb	r1, [r8]
    2b08:	e1500001 	cmp	r0, r1
    2b0c:	8a000007 	bhi	0x2b30
    2b10:	e92d8000 	stmfd	sp!, {pc}
    2b14:	e1a00000 	nop			@ (mov r0, r0)
    2b18:	eafff979 	b	0x1104
    2b1c:	1a000034 	bne	0x2bf4
    2b20:	e92d8000 	stmfd	sp!, {pc}
    2b24:	e1a00000 	nop			@ (mov r0, r0)
    2b28:	ea000033 	b	0x2bfc
    2b2c:	ea000030 	b	0x2bf4
    2b30:	e2888040 	add	r8, r8, #64	@ 0x40
    2b34:	e2577001 	subs	r7, r7, #1
    2b38:	5afffff0 	bpl	0x2b00
    2b3c:	ea00002c 	b	0x2bf4
    2b40:	e2898040 	add	r8, r9, #64	@ 0x40
    2b44:	e5997000 	ldr	r7, [r9]
    2b48:	e59f0bb0 	ldr	r0, [pc, #2992]	@ 0x3700
    2b4c:	e0077000 	and	r7, r7, r0
    2b50:	e5dc00e2 	ldrb	r0, [ip, #226]	@ 0xe2
    2b54:	e5dc10e0 	ldrb	r1, [ip, #224]	@ 0xe0
    2b58:	e20110f0 	and	r1, r1, #240	@ 0xf0
    2b5c:	e1a01181 	lsl	r1, r1, #3
    2b60:	e1800001 	orr	r0, r0, r1
    2b64:	e1500007 	cmp	r0, r7
    2b68:	8a000021 	bhi	0x2bf4
    2b6c:	e1a00300 	lsl	r0, r0, #6
    2b70:	e0888000 	add	r8, r8, r0
    2b74:	e58c80ac 	str	r8, [ip, #172]	@ 0xac
    2b78:	ea00000f 	b	0x2bbc
    2b7c:	e2898040 	add	r8, r9, #64	@ 0x40
    2b80:	e5dc00e2 	ldrb	r0, [ip, #226]	@ 0xe2
    2b84:	e5d81001 	ldrb	r1, [r8, #1]
    2b88:	e1500001 	cmp	r0, r1
    2b8c:	8a000018 	bhi	0x2bf4
    2b90:	e5d81000 	ldrb	r1, [r8]
    2b94:	e0500001 	subs	r0, r0, r1
    2b98:	4a000015 	bmi	0x2bf4
    2b9c:	e1a00080 	lsl	r0, r0, #1
    2ba0:	e2800002 	add	r0, r0, #2
    2ba4:	e7980000 	ldr	r0, [r8, r0]
    2ba8:	e59f1b50 	ldr	r1, [pc, #2896]	@ 0x3700
    2bac:	e0100001 	ands	r0, r0, r1
    2bb0:	0a00000f 	beq	0x2bf4
    2bb4:	e0898000 	add	r8, r9, r0
    2bb8:	e58c80ac 	str	r8, [ip, #172]	@ 0xac
    2bbc:	e5dc00e1 	ldrb	r0, [ip, #225]	@ 0xe1
    2bc0:	e5d81020 	ldrb	r1, [r8, #32]
    2bc4:	e1500001 	cmp	r0, r1
    2bc8:	3a000009 	bcc	0x2bf4
    2bcc:	e5d81021 	ldrb	r1, [r8, #33]	@ 0x21
    2bd0:	e1500001 	cmp	r0, r1
    2bd4:	8a000006 	bhi	0x2bf4
    2bd8:	e92d8000 	stmfd	sp!, {pc}
    2bdc:	e1a00000 	nop			@ (mov r0, r0)
    2be0:	eafff9c4 	b	0x12f8
    2be4:	1a000002 	bne	0x2bf4
    2be8:	e92d8000 	stmfd	sp!, {pc}
    2bec:	e1a00000 	nop			@ (mov r0, r0)
    2bf0:	ea000001 	b	0x2bfc
    2bf4:	e8bd0400 	ldmfd	sp!, {sl}
    2bf8:	e8bd8000 	ldmfd	sp!, {pc}
    2bfc:	e92d4000 	stmfd	sp!, {lr}
    2c00:	e92d8000 	stmfd	sp!, {pc}
    2c04:	e1a00000 	nop			@ (mov r0, r0)
    2c08:	ea0000b0 	b	0x2ed0
    2c0c:	0a0000ad 	beq	0x2ec8
    2c10:	e5db0000 	ldrb	r0, [fp]
    2c14:	e5d81024 	ldrb	r1, [r8, #36]	@ 0x24
    2c18:	e2811080 	add	r1, r1, #128	@ 0x80
    2c1c:	e92d8000 	stmfd	sp!, {pc}
    2c20:	e1a00000 	nop			@ (mov r0, r0)
    2c24:	eafff89d 	b	0xea0
    2c28:	0a0000a6 	beq	0x2ec8
    2c2c:	e1a0e007 	mov	lr, r7
    2c30:	e5db0000 	ldrb	r0, [fp]
    2c34:	e3100001 	tst	r0, #1
    2c38:	159f7ac4 	ldrne	r7, [pc, #2756]	@ 0x3704
    2c3c:	059f7ac4 	ldreq	r7, [pc, #2756]	@ 0x3708
    2c40:	e92d8000 	stmfd	sp!, {pc}
    2c44:	e1a00000 	nop			@ (mov r0, r0)
    2c48:	eafffa61 	b	0x15d4
    2c4c:	e5cc6160 	strb	r6, [ip, #352]	@ 0x160
    2c50:	e1a00006 	mov	r0, r6
    2c54:	e1a00300 	lsl	r0, r0, #6
    2c58:	e59f6aac 	ldr	r6, [pc, #2732]	@ 0x370c
    2c5c:	e0866000 	add	r6, r6, r0
    2c60:	e58c60b0 	str	r6, [ip, #176]	@ 0xb0
    2c64:	e59c00e0 	ldr	r0, [ip, #224]	@ 0xe0
    2c68:	e5860004 	str	r0, [r6, #4]
    2c6c:	e5dc00a0 	ldrb	r0, [ip, #160]	@ 0xa0
    2c70:	e5c60009 	strb	r0, [r6, #9]
    2c74:	e586801c 	str	r8, [r6, #28]
    2c78:	e586900c 	str	r9, [r6, #12]
    2c7c:	e3a00080 	mov	r0, #128	@ 0x80
    2c80:	e5db1000 	ldrb	r1, [fp]
    2c84:	e3110001 	tst	r1, #1
    2c88:	13800040 	orrne	r0, r0, #64	@ 0x40
    2c8c:	e5d81001 	ldrb	r1, [r8, #1]
    2c90:	e3110080 	tst	r1, #128	@ 0x80
    2c94:	13800008 	orrne	r0, r0, #8
    2c98:	e5db1013 	ldrb	r1, [fp, #19]
    2c9c:	e1b01001 	movs	r1, r1
    2ca0:	13800001 	orrne	r0, r0, #1
    2ca4:	e5c60000 	strb	r0, [r6]
    2ca8:	e5d80023 	ldrb	r0, [r8, #35]	@ 0x23
    2cac:	e5c60002 	strb	r0, [r6, #2]
    2cb0:	e5d80024 	ldrb	r0, [r8, #36]	@ 0x24
    2cb4:	e2800080 	add	r0, r0, #128	@ 0x80
    2cb8:	e5c60003 	strb	r0, [r6, #3]
    2cbc:	e5d80022 	ldrb	r0, [r8, #34]	@ 0x22
    2cc0:	e20000c3 	and	r0, r0, #195	@ 0xc3
    2cc4:	e5c60001 	strb	r0, [r6, #1]
    2cc8:	e3a04000 	mov	r4, #0
    2ccc:	e59c00b8 	ldr	r0, [ip, #184]	@ 0xb8
    2cd0:	e5860030 	str	r0, [r6, #48]	@ 0x30
    2cd4:	e1b00000 	movs	r0, r0
    2cd8:	13844001 	orrne	r4, r4, #1
    2cdc:	e5c64020 	strb	r4, [r6, #32]
    2ce0:	e3a00000 	mov	r0, #0
    2ce4:	e5c6000b 	strb	r0, [r6, #11]
    2ce8:	e5c60013 	strb	r0, [r6, #19]
    2cec:	e586003c 	str	r0, [r6, #60]	@ 0x3c
    2cf0:	e59f4a08 	ldr	r4, [pc, #2568]	@ 0x3700
    2cf4:	e598000c 	ldr	r0, [r8, #12]
    2cf8:	e598100e 	ldr	r1, [r8, #14]
    2cfc:	e5982030 	ldr	r2, [r8, #48]	@ 0x30
    2d00:	e0000004 	and	r0, r0, r4
    2d04:	e0011004 	and	r1, r1, r4
    2d08:	e0022004 	and	r2, r2, r4
    2d0c:	e58e0010 	str	r0, [lr, #16]
    2d10:	e58e1014 	str	r1, [lr, #20]
    2d14:	e58e201c 	str	r2, [lr, #28]
    2d18:	e59f49f0 	ldr	r4, [pc, #2544]	@ 0x3710
    2d1c:	e5980010 	ldr	r0, [r8, #16]
    2d20:	e0100004 	ands	r0, r0, r4
    2d24:	1a000002 	bne	0x2d34
    2d28:	e3a00020 	mov	r0, #32
    2d2c:	e5ce0028 	strb	r0, [lr, #40]	@ 0x28
    2d30:	ea000023 	b	0x2dc4
    2d34:	e1a00100 	lsl	r0, r0, #2
    2d38:	e58e002c 	str	r0, [lr, #44]	@ 0x2c
    2d3c:	e5980012 	ldr	r0, [r8, #18]
    2d40:	e0000004 	and	r0, r0, r4
    2d44:	e1a00100 	lsl	r0, r0, #2
    2d48:	e58e0030 	str	r0, [lr, #48]	@ 0x30
    2d4c:	e5980014 	ldr	r0, [r8, #20]
    2d50:	e0000004 	and	r0, r0, r4
    2d54:	e1a00100 	lsl	r0, r0, #2
    2d58:	e58e0034 	str	r0, [lr, #52]	@ 0x34
    2d5c:	e5980016 	ldr	r0, [r8, #22]
    2d60:	e0000004 	and	r0, r0, r4
    2d64:	e1a00100 	lsl	r0, r0, #2
    2d68:	e58e0038 	str	r0, [lr, #56]	@ 0x38
    2d6c:	e5980018 	ldr	r0, [r8, #24]
    2d70:	e0000004 	and	r0, r0, r4
    2d74:	e1a00100 	lsl	r0, r0, #2
    2d78:	e58e003c 	str	r0, [lr, #60]	@ 0x3c
    2d7c:	e59f4990 	ldr	r4, [pc, #2448]	@ 0x3714
    2d80:	e5d80011 	ldrb	r0, [r8, #17]
    2d84:	e5d81013 	ldrb	r1, [r8, #19]
    2d88:	e1a00280 	lsl	r0, r0, #5
    2d8c:	e1a011a1 	lsr	r1, r1, #3
    2d90:	e1800001 	orr	r0, r0, r1
    2d94:	e0000004 	and	r0, r0, r4
    2d98:	e58e0040 	str	r0, [lr, #64]	@ 0x40
    2d9c:	e5d80015 	ldrb	r0, [r8, #21]
    2da0:	e5d81017 	ldrb	r1, [r8, #23]
    2da4:	e1a00280 	lsl	r0, r0, #5
    2da8:	e1a011a1 	lsr	r1, r1, #3
    2dac:	e1800001 	orr	r0, r0, r1
    2db0:	e0000004 	and	r0, r0, r4
    2db4:	e58e0044 	str	r0, [lr, #68]	@ 0x44
    2db8:	e5d80019 	ldrb	r0, [r8, #25]
    2dbc:	e1a001a0 	lsr	r0, r0, #3
    2dc0:	e5ce0028 	strb	r0, [lr, #40]	@ 0x28
    2dc4:	e59c70a4 	ldr	r7, [ip, #164]	@ 0xa4
    2dc8:	e92d8000 	stmfd	sp!, {pc}
    2dcc:	e1a00000 	nop			@ (mov r0, r0)
    2dd0:	ea0001d4 	b	0x3528
    2dd4:	e5ce0024 	strb	r0, [lr, #36]	@ 0x24
    2dd8:	e5cc0165 	strb	r0, [ip, #357]	@ 0x165
    2ddc:	e5d80007 	ldrb	r0, [r8, #7]
    2de0:	e3100080 	tst	r0, #128	@ 0x80
    2de4:	15db0009 	ldrbne	r0, [fp, #9]
    2de8:	e200000f 	and	r0, r0, #15
    2dec:	e5ce0025 	strb	r0, [lr, #37]	@ 0x25
    2df0:	e5d8001e 	ldrb	r0, [r8, #30]
    2df4:	e3100080 	tst	r0, #128	@ 0x80
    2df8:	05d8001f 	ldrbeq	r0, [r8, #31]
    2dfc:	15db0008 	ldrbne	r0, [fp, #8]
    2e00:	e5ce0020 	strb	r0, [lr, #32]
    2e04:	e59f78f4 	ldr	r7, [pc, #2292]	@ 0x3700
    2e08:	e59c00a4 	ldr	r0, [ip, #164]	@ 0xa4
    2e0c:	e5981002 	ldr	r1, [r8, #2]
    2e10:	e5982004 	ldr	r2, [r8, #4]
    2e14:	e0011007 	and	r1, r1, r7
    2e18:	e0022007 	and	r2, r2, r7
    2e1c:	e92d8000 	stmfd	sp!, {pc}
    2e20:	e1a00000 	nop			@ (mov r0, r0)
    2e24:	ea0001db 	b	0x3598
    2e28:	e58e0004 	str	r0, [lr, #4]
    2e2c:	e58e1000 	str	r1, [lr]
    2e30:	e58e2008 	str	r2, [lr, #8]
    2e34:	e58e300c 	str	r3, [lr, #12]
    2e38:	e59c0120 	ldr	r0, [ip, #288]	@ 0x120
    2e3c:	e58c0170 	str	r0, [ip, #368]	@ 0x170
    2e40:	e92d8000 	stmfd	sp!, {pc}
    2e44:	e1a00000 	nop			@ (mov r0, r0)
    2e48:	ea0000d9 	b	0x31b4
    2e4c:	e58c1168 	str	r1, [ip, #360]	@ 0x168
    2e50:	e92d8000 	stmfd	sp!, {pc}
    2e54:	e1a00000 	nop			@ (mov r0, r0)
    2e58:	ea00009e 	b	0x30d8
    2e5c:	e5cc0164 	strb	r0, [ip, #356]	@ 0x164
    2e60:	e59c60b0 	ldr	r6, [ip, #176]	@ 0xb0
    2e64:	e59c0168 	ldr	r0, [ip, #360]	@ 0x168
    2e68:	e5860018 	str	r0, [r6, #24]
    2e6c:	e5dc0164 	ldrb	r0, [ip, #356]	@ 0x164
    2e70:	e5c60015 	strb	r0, [r6, #21]
    2e74:	e5dc0165 	ldrb	r0, [ip, #357]	@ 0x165
    2e78:	e5c60014 	strb	r0, [r6, #20]
    2e7c:	e3a000ff 	mov	r0, #255	@ 0xff
    2e80:	e5c60017 	strb	r0, [r6, #23]
    2e84:	e3a000ff 	mov	r0, #255	@ 0xff
    2e88:	e5c6000a 	strb	r0, [r6, #10]
    2e8c:	e92d8000 	stmfd	sp!, {pc}
    2e90:	e1a00000 	nop			@ (mov r0, r0)
    2e94:	ea000577 	b	0x4478
    2e98:	e59c60b0 	ldr	r6, [ip, #176]	@ 0xb0
    2e9c:	e1a0700e 	mov	r7, lr
    2ea0:	e92d8000 	stmfd	sp!, {pc}
    2ea4:	e1a00000 	nop			@ (mov r0, r0)
    2ea8:	eafff9b3 	b	0x157c
    2eac:	e92d8000 	stmfd	sp!, {pc}
    2eb0:	e1a00000 	nop			@ (mov r0, r0)
    2eb4:	ea0000d0 	b	0x31fc
    2eb8:	e5dc0160 	ldrb	r0, [ip, #352]	@ 0x160
    2ebc:	e92d8000 	stmfd	sp!, {pc}
    2ec0:	e1a00000 	nop			@ (mov r0, r0)
    2ec4:	eafff9bc 	b	0x15bc
    2ec8:	e8bd4000 	ldmfd	sp!, {lr}
    2ecc:	e8bd8000 	ldmfd	sp!, {pc}
    2ed0:	e5db0001 	ldrb	r0, [fp, #1]
    2ed4:	e3100001 	tst	r0, #1
    2ed8:	0a00000b 	beq	0x2f0c
    2edc:	e5dc0005 	ldrb	r0, [ip, #5]
    2ee0:	e1b00000 	movs	r0, r0
    2ee4:	0a00000a 	beq	0x2f14
    2ee8:	e5db0010 	ldrb	r0, [fp, #16]
    2eec:	e1b00000 	movs	r0, r0
    2ef0:	0a000007 	beq	0x2f14
    2ef4:	e5db000a 	ldrb	r0, [fp, #10]
    2ef8:	e1b00000 	movs	r0, r0
    2efc:	0a000004 	beq	0x2f14
    2f00:	e5dc00e1 	ldrb	r0, [ip, #225]	@ 0xe1
    2f04:	e1b00000 	movs	r0, r0
    2f08:	0a000001 	beq	0x2f14
    2f0c:	e35d0000 	cmp	sp, #0
    2f10:	e8bd8000 	ldmfd	sp!, {pc}
    2f14:	e1500000 	cmp	r0, r0
    2f18:	e8bd8000 	ldmfd	sp!, {pc}
    2f1c:	e3a00000 	mov	r0, #0
    2f20:	e58c00b8 	str	r0, [ip, #184]	@ 0xb8
    2f24:	e59b0020 	ldr	r0, [fp, #32]
    2f28:	e3100902 	tst	r0, #32768	@ 0x8000
    2f2c:	0a000016 	beq	0x2f8c
    2f30:	e5dc00e2 	ldrb	r0, [ip, #226]	@ 0xe2
    2f34:	e5db1026 	ldrb	r1, [fp, #38]	@ 0x26
    2f38:	e5cb0026 	strb	r0, [fp, #38]	@ 0x26
    2f3c:	e0510000 	subs	r0, r1, r0
    2f40:	0a000011 	beq	0x2f8c
    2f44:	e1a00400 	lsl	r0, r0, #8
    2f48:	e58c00b8 	str	r0, [ip, #184]	@ 0xb8
    2f4c:	e1a04000 	mov	r4, r0
    2f50:	e59b1022 	ldr	r1, [fp, #34]	@ 0x22
    2f54:	e59f27a4 	ldr	r2, [pc, #1956]	@ 0x3700
    2f58:	e0011002 	and	r1, r1, r2
    2f5c:	e1b011a1 	lsrs	r1, r1, #3
    2f60:	e3510001 	cmp	r1, #1
    2f64:	9a000007 	bls	0x2f88
    2f68:	e92d8000 	stmfd	sp!, {pc}
    2f6c:	e1a00000 	nop			@ (mov r0, r0)
    2f70:	eafffd05 	b	0x238c
    2f74:	e1b00000 	movs	r0, r0
    2f78:	1a000002 	bne	0x2f88
    2f7c:	e3140102 	tst	r4, #-2147483648	@ 0x80000000
    2f80:	03a00001 	moveq	r0, #1
    2f84:	13e00000 	mvnne	r0, #0
    2f88:	e58b0018 	str	r0, [fp, #24]
    2f8c:	e8bd8000 	ldmfd	sp!, {pc}
    2f90:	e59f0780 	ldr	r0, [pc, #1920]	@ 0x3718
    2f94:	e92d8000 	stmfd	sp!, {pc}
    2f98:	e1a00000 	nop			@ (mov r0, r0)
    2f9c:	eafffa3e 	b	0x189c
    2fa0:	e59c00e0 	ldr	r0, [ip, #224]	@ 0xe0
    2fa4:	e92d8000 	stmfd	sp!, {pc}
    2fa8:	e1a00000 	nop			@ (mov r0, r0)
    2fac:	eafffc42 	b	0x20bc
    2fb0:	e1a04001 	mov	r4, r1
    2fb4:	e92d8000 	stmfd	sp!, {pc}
    2fb8:	e1a00000 	nop			@ (mov r0, r0)
    2fbc:	eafffc43 	b	0x20d0
    2fc0:	e5d10000 	ldrb	r0, [r1]
    2fc4:	e35000ff 	cmp	r0, #255	@ 0xff
    2fc8:	0a00000d 	beq	0x3004
    2fcc:	e1a00300 	lsl	r0, r0, #6
    2fd0:	e59f1710 	ldr	r1, [pc, #1808]	@ 0x36e8
    2fd4:	e0811000 	add	r1, r1, r0
    2fd8:	e1a00004 	mov	r0, r4
    2fdc:	e92d8000 	stmfd	sp!, {pc}
    2fe0:	e1a00000 	nop			@ (mov r0, r0)
    2fe4:	eafffc67 	b	0x2188
    2fe8:	e1b00000 	movs	r0, r0
    2fec:	0a000004 	beq	0x3004
    2ff0:	e58c00ec 	str	r0, [ip, #236]	@ 0xec
    2ff4:	e59f0720 	ldr	r0, [pc, #1824]	@ 0x371c
    2ff8:	e92d8000 	stmfd	sp!, {pc}
    2ffc:	e1a00000 	nop			@ (mov r0, r0)
    3000:	eafffa25 	b	0x189c
    3004:	ea00025d 	b	0x3980
    3008:	e1a0b30b 	lsl	fp, fp, #6
    300c:	e59f16d4 	ldr	r1, [pc, #1748]	@ 0x36e8
    3010:	e081100b 	add	r1, r1, fp
    3014:	e1a00820 	lsr	r0, r0, #16
    3018:	e21000ff 	ands	r0, r0, #255	@ 0xff
    301c:	e5c10003 	strb	r0, [r1, #3]
    3020:	e8bd8000 	ldmfd	sp!, {pc}
    3024:	e1a0b30b 	lsl	fp, fp, #6
    3028:	e59f16b8 	ldr	r1, [pc, #1720]	@ 0x36e8
    302c:	e081100b 	add	r1, r1, fp
    3030:	e59c00ec 	ldr	r0, [ip, #236]	@ 0xec
    3034:	e5810004 	str	r0, [r1, #4]
    3038:	e8bd8000 	ldmfd	sp!, {pc}
    303c:	ea00024f 	b	0x3980
    3040:	e59f06d8 	ldr	r0, [pc, #1752]	@ 0x3720
    3044:	e92d8000 	stmfd	sp!, {pc}
    3048:	e1a00000 	nop			@ (mov r0, r0)
    304c:	eafffa12 	b	0x189c
    3050:	e59f06cc 	ldr	r0, [pc, #1740]	@ 0x3724
    3054:	e59f16cc 	ldr	r1, [pc, #1740]	@ 0x3728
    3058:	e92d8000 	stmfd	sp!, {pc}
    305c:	e1a00000 	nop			@ (mov r0, r0)
    3060:	eafffaa3 	b	0x1af4
    3064:	ea000245 	b	0x3980
    3068:	e1a01420 	lsr	r1, r0, #8
    306c:	e21110ff 	ands	r1, r1, #255	@ 0xff
    3070:	e1a0b30b 	lsl	fp, fp, #6
    3074:	e59f066c 	ldr	r0, [pc, #1644]	@ 0x36e8
    3078:	e080000b 	add	r0, r0, fp
    307c:	e5c01012 	strb	r1, [r0, #18]
    3080:	e8bd8000 	ldmfd	sp!, {pc}
    3084:	ea00023d 	b	0x3980
    3088:	e5da7005 	ldrb	r7, [sl, #5]
    308c:	e92d0f00 	push	{r8, r9, sl, fp}
    3090:	e92d8000 	stmfd	sp!, {pc}
    3094:	e1a00000 	nop			@ (mov r0, r0)
    3098:	ea00004b 	b	0x31cc
    309c:	e5d90006 	ldrb	r0, [r9, #6]
    30a0:	e1a01007 	mov	r1, r7
    30a4:	e5d82008 	ldrb	r2, [r8, #8]
    30a8:	e1a020a2 	lsr	r2, r2, #1
    30ac:	e92d8000 	stmfd	sp!, {pc}
    30b0:	e1a00000 	nop			@ (mov r0, r0)
    30b4:	ea0000c7 	b	0x33d8
    30b8:	e8bd0f00 	pop	{r8, r9, sl, fp}
    30bc:	e22000ff 	eor	r0, r0, #255	@ 0xff
    30c0:	e5ca0015 	strb	r0, [sl, #21]
    30c4:	e92d8000 	stmfd	sp!, {pc}
    30c8:	e1a00000 	nop			@ (mov r0, r0)
    30cc:	ea00000f 	b	0x3110
    30d0:	e5da0015 	ldrb	r0, [sl, #21]
    30d4:	e8bd8000 	ldmfd	sp!, {pc}
    30d8:	e5d90006 	ldrb	r0, [r9, #6]
    30dc:	e5dc10e1 	ldrb	r1, [ip, #225]	@ 0xe1
    30e0:	e5d82008 	ldrb	r2, [r8, #8]
    30e4:	e1a020a2 	lsr	r2, r2, #1
    30e8:	e92d8000 	stmfd	sp!, {pc}
    30ec:	e1a00000 	nop			@ (mov r0, r0)
    30f0:	ea0000b8 	b	0x33d8
    30f4:	e5ce0029 	strb	r0, [lr, #41]	@ 0x29
    30f8:	e22000ff 	eor	r0, r0, #255	@ 0xff
    30fc:	e8bd8000 	ldmfd	sp!, {pc}
    3100:	e5da1017 	ldrb	r1, [sl, #23]
    3104:	e35100ff 	cmp	r1, #255	@ 0xff
    3108:	0a000014 	beq	0x3160
    310c:	ea000002 	b	0x311c
    3110:	e5da1017 	ldrb	r1, [sl, #23]
    3114:	e35100ff 	cmp	r1, #255	@ 0xff
    3118:	0a00000d 	beq	0x3154
    311c:	e35100fe 	cmp	r1, #254	@ 0xfe
    3120:	0a00000a 	beq	0x3150
    3124:	e1a00001 	mov	r0, r1
    3128:	e1a01381 	lsl	r1, r1, #7
    312c:	e3a07502 	mov	r7, #8388608	@ 0x800000
    3130:	e0877001 	add	r7, r7, r1
    3134:	e5da0014 	ldrb	r0, [sl, #20]
    3138:	e5da1015 	ldrb	r1, [sl, #21]
    313c:	e92d8000 	stmfd	sp!, {pc}
    3140:	e1a00000 	nop			@ (mov r0, r0)
    3144:	eafffcdd 	b	0x24c0
    3148:	e5cb0029 	strb	r0, [fp, #41]	@ 0x29
    314c:	e5c71029 	strb	r1, [r7, #41]	@ 0x29
    3150:	e8bd8000 	ldmfd	sp!, {pc}
    3154:	e22000ff 	eor	r0, r0, #255	@ 0xff
    3158:	e5cb0029 	strb	r0, [fp, #41]	@ 0x29
    315c:	e8bd8000 	ldmfd	sp!, {pc}
    3160:	e5cb0024 	strb	r0, [fp, #36]	@ 0x24
    3164:	e8bd8000 	ldmfd	sp!, {pc}
    3168:	e92d0f00 	push	{r8, r9, sl, fp}
    316c:	e5da0006 	ldrb	r0, [sl, #6]
    3170:	e92d0001 	stmfd	sp!, {r0}
    3174:	e92d8000 	stmfd	sp!, {pc}
    3178:	e1a00000 	nop			@ (mov r0, r0)
    317c:	ea000012 	b	0x31cc
    3180:	e8bd0001 	ldmfd	sp!, {r0}
    3184:	e92d8000 	stmfd	sp!, {pc}
    3188:	e1a00000 	nop			@ (mov r0, r0)
    318c:	ea0000ba 	b	0x347c
    3190:	e8bd0f00 	pop	{r8, r9, sl, fp}
    3194:	e58a1018 	str	r1, [sl, #24]
    3198:	e1a0600a 	mov	r6, sl
    319c:	e1a0700b 	mov	r7, fp
    31a0:	e92d8000 	stmfd	sp!, {pc}
    31a4:	e1a00000 	nop			@ (mov r0, r0)
    31a8:	eafff8f3 	b	0x157c
    31ac:	e58b0018 	str	r0, [fp, #24]
    31b0:	e8bd8000 	ldmfd	sp!, {pc}
    31b4:	e5dc00e2 	ldrb	r0, [ip, #226]	@ 0xe2
    31b8:	e92d8000 	stmfd	sp!, {pc}
    31bc:	e1a00000 	nop			@ (mov r0, r0)
    31c0:	ea0000ad 	b	0x347c
    31c4:	e58e0018 	str	r0, [lr, #24]
    31c8:	e8bd8000 	ldmfd	sp!, {pc}
    31cc:	e59a801c 	ldr	r8, [sl, #28]
    31d0:	e59a900c 	ldr	r9, [sl, #12]
    31d4:	e5da0009 	ldrb	r0, [sl, #9]
    31d8:	e1a00300 	lsl	r0, r0, #6
    31dc:	e59fb504 	ldr	fp, [pc, #1284]	@ 0x36e8
    31e0:	e08bb000 	add	fp, fp, r0
    31e4:	e5da0004 	ldrb	r0, [sl, #4]
    31e8:	e2000007 	and	r0, r0, #7
    31ec:	e1a00280 	lsl	r0, r0, #5
    31f0:	e59fa500 	ldr	sl, [pc, #1280]	@ 0x36f8
    31f4:	e08aa000 	add	sl, sl, r0
    31f8:	e8bd8000 	ldmfd	sp!, {pc}
    31fc:	e59c7170 	ldr	r7, [ip, #368]	@ 0x170
    3200:	e5d70008 	ldrb	r0, [r7, #8]
    3204:	e3100080 	tst	r0, #128	@ 0x80
    3208:	0a000023 	beq	0x329c
    320c:	e5db0000 	ldrb	r0, [fp]
    3210:	e5d81024 	ldrb	r1, [r8, #36]	@ 0x24
    3214:	e2811080 	add	r1, r1, #128	@ 0x80
    3218:	e92d8000 	stmfd	sp!, {pc}
    321c:	e1a00000 	nop			@ (mov r0, r0)
    3220:	eafff71e 	b	0xea0
    3224:	0a00001c 	beq	0x329c
    3228:	e5cc6161 	strb	r6, [ip, #353]	@ 0x161
    322c:	e5db0000 	ldrb	r0, [fp]
    3230:	e3100001 	tst	r0, #1
    3234:	159f74c8 	ldrne	r7, [pc, #1224]	@ 0x3704
    3238:	059f74c8 	ldreq	r7, [pc, #1224]	@ 0x3708
    323c:	e92d8000 	stmfd	sp!, {pc}
    3240:	e1a00000 	nop			@ (mov r0, r0)
    3244:	eafff8e2 	b	0x15d4
    3248:	e92d8000 	stmfd	sp!, {pc}
    324c:	e1a00000 	nop			@ (mov r0, r0)
    3250:	eafff69b 	b	0xcc4
    3254:	0a000003 	beq	0x3268
    3258:	e92d8000 	stmfd	sp!, {pc}
    325c:	e1a00000 	nop			@ (mov r0, r0)
    3260:	ea00000e 	b	0x32a0
    3264:	ea00000c 	b	0x329c
    3268:	e92d0e00 	push	{r9, sl, fp}
    326c:	e1a00001 	mov	r0, r1
    3270:	e1a09001 	mov	r9, r1
    3274:	e1a00300 	lsl	r0, r0, #6
    3278:	e59fa48c 	ldr	sl, [pc, #1164]	@ 0x370c
    327c:	e08aa000 	add	sl, sl, r0
    3280:	e1a01381 	lsl	r1, r1, #7
    3284:	e3a0b502 	mov	fp, #8388608	@ 0x800000
    3288:	e08bb001 	add	fp, fp, r1
    328c:	e92d8000 	stmfd	sp!, {pc}
    3290:	e1a00000 	nop			@ (mov r0, r0)
    3294:	eafff6ae 	b	0xd54
    3298:	e8bd0e00 	pop	{r9, sl, fp}
    329c:	e8bd8000 	ldmfd	sp!, {pc}
    32a0:	e92d0100 	stmfd	sp!, {r8}
    32a4:	e5dc0160 	ldrb	r0, [ip, #352]	@ 0x160
    32a8:	e5dc1161 	ldrb	r1, [ip, #353]	@ 0x161
    32ac:	e35100ff 	cmp	r1, #255	@ 0xff
    32b0:	0a00003e 	beq	0x33b0
    32b4:	e1a02000 	mov	r2, r0
    32b8:	e1a03001 	mov	r3, r1
    32bc:	e1a00300 	lsl	r0, r0, #6
    32c0:	e59f4444 	ldr	r4, [pc, #1092]	@ 0x370c
    32c4:	e0844000 	add	r4, r4, r0
    32c8:	e1a02382 	lsl	r2, r2, #7
    32cc:	e3a05502 	mov	r5, #8388608	@ 0x800000
    32d0:	e0855002 	add	r5, r5, r2
    32d4:	e1a01301 	lsl	r1, r1, #6
    32d8:	e59f642c 	ldr	r6, [pc, #1068]	@ 0x370c
    32dc:	e0866001 	add	r6, r6, r1
    32e0:	e1a03383 	lsl	r3, r3, #7
    32e4:	e3a07502 	mov	r7, #8388608	@ 0x800000
    32e8:	e0877003 	add	r7, r7, r3
    32ec:	e59c8170 	ldr	r8, [ip, #368]	@ 0x170
    32f0:	e5d60010 	ldrb	r0, [r6, #16]
    32f4:	e5d61011 	ldrb	r1, [r6, #17]
    32f8:	e92d0003 	push	{r0, r1}
    32fc:	e1a00004 	mov	r0, r4
    3300:	e1a01006 	mov	r1, r6
    3304:	e3a02040 	mov	r2, #64	@ 0x40
    3308:	e92d8000 	stmfd	sp!, {pc}
    330c:	e1a00000 	nop			@ (mov r0, r0)
    3310:	eafffa37 	b	0x1bf4
    3314:	e8bd0003 	pop	{r0, r1}
    3318:	e5c60010 	strb	r0, [r6, #16]
    331c:	e5c61011 	strb	r1, [r6, #17]
    3320:	e1a00005 	mov	r0, r5
    3324:	e1a01007 	mov	r1, r7
    3328:	e3a02048 	mov	r2, #72	@ 0x48
    332c:	e92d8000 	stmfd	sp!, {pc}
    3330:	e1a00000 	nop			@ (mov r0, r0)
    3334:	eafffa2e 	b	0x1bf4
    3338:	e5dc0161 	ldrb	r0, [ip, #353]	@ 0x161
    333c:	e5c40017 	strb	r0, [r4, #23]
    3340:	e5c60016 	strb	r0, [r6, #22]
    3344:	e3a000fe 	mov	r0, #254	@ 0xfe
    3348:	e5c60017 	strb	r0, [r6, #23]
    334c:	e5dc0160 	ldrb	r0, [ip, #352]	@ 0x160
    3350:	e5c6000a 	strb	r0, [r6, #10]
    3354:	e5950004 	ldr	r0, [r5, #4]
    3358:	e5951000 	ldr	r1, [r5]
    335c:	e598200c 	ldr	r2, [r8, #12]
    3360:	e92d8000 	stmfd	sp!, {pc}
    3364:	e1a00000 	nop			@ (mov r0, r0)
    3368:	ea000012 	b	0x33b8
    336c:	e5870004 	str	r0, [r7, #4]
    3370:	e5871000 	str	r1, [r7]
    3374:	e3a0001f 	mov	r0, #31
    3378:	e3a0100f 	mov	r1, #15
    337c:	e5c50024 	strb	r0, [r5, #36]	@ 0x24
    3380:	e5c71024 	strb	r1, [r7, #36]	@ 0x24
    3384:	e5dc0165 	ldrb	r0, [ip, #357]	@ 0x165
    3388:	e5dc1164 	ldrb	r1, [ip, #356]	@ 0x164
    338c:	e92d8000 	stmfd	sp!, {pc}
    3390:	e1a00000 	nop			@ (mov r0, r0)
    3394:	eafffc49 	b	0x24c0
    3398:	e5c50029 	strb	r0, [r5, #41]	@ 0x29
    339c:	e5c71029 	strb	r1, [r7, #41]	@ 0x29
    33a0:	e5dc0161 	ldrb	r0, [ip, #353]	@ 0x161
    33a4:	e92d8000 	stmfd	sp!, {pc}
    33a8:	e1a00000 	nop			@ (mov r0, r0)
    33ac:	eafff882 	b	0x15bc
    33b0:	e8bd0100 	ldmfd	sp!, {r8}
    33b4:	e8bd8000 	ldmfd	sp!, {pc}
    33b8:	e59f3340 	ldr	r3, [pc, #832]	@ 0x3700
    33bc:	e1a01801 	lsl	r1, r1, #16
    33c0:	e1800001 	orr	r0, r0, r1
    33c4:	e0800002 	add	r0, r0, r2
    33c8:	e1a01000 	mov	r1, r0
    33cc:	e1a01821 	lsr	r1, r1, #16
    33d0:	e0000003 	and	r0, r0, r3
    33d4:	e8bd8000 	ldmfd	sp!, {pc}
    33d8:	e92d0006 	push	{r1, r2}
    33dc:	e1a0100a 	mov	r1, sl
    33e0:	e92d8000 	stmfd	sp!, {pc}
    33e4:	e1a00000 	nop			@ (mov r0, r0)
    33e8:	eafffb52 	b	0x2138
    33ec:	e1a07000 	mov	r7, r0
    33f0:	e8bd0006 	pop	{r1, r2}
    33f4:	e5dc0005 	ldrb	r0, [ip, #5]
    33f8:	e5db300a 	ldrb	r3, [fp, #10]
    33fc:	e5db4010 	ldrb	r4, [fp, #16]
    3400:	e5da5006 	ldrb	r5, [sl, #6]
    3404:	e7d71001 	ldrb	r1, [r7, r1]
    3408:	e1a02082 	lsl	r2, r2, #1
    340c:	e0010192 	mul	r1, r2, r1
    3410:	e1b01421 	lsrs	r1, r1, #8
    3414:	12811001 	addne	r1, r1, #1
    3418:	e1a03083 	lsl	r3, r3, #1
    341c:	e0010193 	mul	r1, r3, r1
    3420:	e1b01421 	lsrs	r1, r1, #8
    3424:	12811001 	addne	r1, r1, #1
    3428:	e1a04084 	lsl	r4, r4, #1
    342c:	e0010194 	mul	r1, r4, r1
    3430:	e1b01421 	lsrs	r1, r1, #8
    3434:	12811001 	addne	r1, r1, #1
    3438:	e1a00080 	lsl	r0, r0, #1
    343c:	e0010190 	mul	r1, r0, r1
    3440:	e1b01421 	lsrs	r1, r1, #8
    3444:	12811001 	addne	r1, r1, #1
    3448:	e5db0000 	ldrb	r0, [fp]
    344c:	e3100001 	tst	r0, #1
    3450:	1a000004 	bne	0x3468
    3454:	e205507f 	and	r5, r5, #127	@ 0x7f
    3458:	e1a05085 	lsl	r5, r5, #1
    345c:	e0010195 	mul	r1, r5, r1
    3460:	e1b01421 	lsrs	r1, r1, #8
    3464:	12811001 	addne	r1, r1, #1
    3468:	e22110ff 	eor	r1, r1, #255	@ 0xff
    346c:	e35100ff 	cmp	r1, #255	@ 0xff
    3470:	11a010a1 	lsrne	r1, r1, #1
    3474:	e1a00001 	mov	r0, r1
    3478:	e8bd8000 	ldmfd	sp!, {pc}
    347c:	e3a01000 	mov	r1, #0
    3480:	e59b3004 	ldr	r3, [fp, #4]
    3484:	e5d32000 	ldrb	r2, [r3]
    3488:	e3520000 	cmp	r2, #0
    348c:	1a000000 	bne	0x3494
    3490:	e240103c 	sub	r1, r0, #60	@ 0x3c
    3494:	e1a07401 	lsl	r7, r1, #8
    3498:	e5db100c 	ldrb	r1, [fp, #12]
    349c:	e1a01c81 	lsl	r1, r1, #25
    34a0:	e1a018c1 	asr	r1, r1, #17
    34a4:	e0877001 	add	r7, r7, r1
    34a8:	e5d8100a 	ldrb	r1, [r8, #10]
    34ac:	e1a01c01 	lsl	r1, r1, #24
    34b0:	e1a01841 	asr	r1, r1, #16
    34b4:	e0877001 	add	r7, r7, r1
    34b8:	e5db100d 	ldrb	r1, [fp, #13]
    34bc:	e1a01c81 	lsl	r1, r1, #25
    34c0:	e1a01bc1 	asr	r1, r1, #23
    34c4:	e0877001 	add	r7, r7, r1
    34c8:	e5d8100b 	ldrb	r1, [r8, #11]
    34cc:	e1a01c01 	lsl	r1, r1, #24
    34d0:	e1a01b41 	asr	r1, r1, #22
    34d4:	e0877001 	add	r7, r7, r1
    34d8:	e5d8001c 	ldrb	r0, [r8, #28]
    34dc:	e1b00000 	movs	r0, r0
    34e0:	0a000003 	beq	0x34f4
    34e4:	e92d8000 	stmfd	sp!, {pc}
    34e8:	e1a00000 	nop			@ (mov r0, r0)
    34ec:	eafffc56 	b	0x264c
    34f0:	e0877000 	add	r7, r7, r0
    34f4:	e5db0012 	ldrb	r0, [fp, #18]
    34f8:	e5d91021 	ldrb	r1, [r9, #33]	@ 0x21
    34fc:	e5d92022 	ldrb	r2, [r9, #34]	@ 0x22
    3500:	e92d8000 	stmfd	sp!, {pc}
    3504:	e1a00000 	nop			@ (mov r0, r0)
    3508:	eafffc46 	b	0x2628
    350c:	e0800007 	add	r0, r0, r7
    3510:	e1a04000 	mov	r4, r0
    3514:	e92d8000 	stmfd	sp!, {pc}
    3518:	e1a00000 	nop			@ (mov r0, r0)
    351c:	eafffc08 	b	0x2544
    3520:	e1a01004 	mov	r1, r4
    3524:	e8bd8000 	ldmfd	sp!, {pc}
    3528:	e5d84006 	ldrb	r4, [r8, #6]
    352c:	e3140080 	tst	r4, #128	@ 0x80
    3530:	1a000015 	bne	0x358c
    3534:	e204401f 	and	r4, r4, #31
    3538:	e5d95028 	ldrb	r5, [r9, #40]	@ 0x28
    353c:	e215501f 	ands	r5, r5, #31
    3540:	0a000012 	beq	0x3590
    3544:	e2455001 	sub	r5, r5, #1
    3548:	e5d9602a 	ldrb	r6, [r9, #42]	@ 0x2a
    354c:	e59f71d8 	ldr	r7, [pc, #472]	@ 0x372c
    3550:	e4970004 	ldr	r0, [r7], #4
    3554:	e1550000 	cmp	r5, r0
    3558:	8a00000c 	bhi	0x3590
    355c:	e1a00205 	lsl	r0, r5, #4
    3560:	e0877000 	add	r7, r7, r0
    3564:	e7d74006 	ldrb	r4, [r7, r6]
    3568:	e2866001 	add	r6, r6, #1
    356c:	e3560010 	cmp	r6, #16
    3570:	03a06000 	moveq	r6, #0
    3574:	0a000002 	beq	0x3584
    3578:	e7d70006 	ldrb	r0, [r7, r6]
    357c:	e35000ff 	cmp	r0, #255	@ 0xff
    3580:	03a06000 	moveq	r6, #0
    3584:	e5c9602a 	strb	r6, [r9, #42]	@ 0x2a
    3588:	ea000000 	b	0x3590
    358c:	e5db400b 	ldrb	r4, [fp, #11]
    3590:	e1a00004 	mov	r0, r4
    3594:	e8bd8000 	ldmfd	sp!, {pc}
    3598:	e92d00f0 	push	{r4, r5, r6, r7}
    359c:	e92d0006 	push	{r1, r2}
    35a0:	e92d8000 	stmfd	sp!, {pc}
    35a4:	e1a00000 	nop			@ (mov r0, r0)
    35a8:	ea000034 	b	0x3680
    35ac:	e8bd0006 	pop	{r1, r2}
    35b0:	e1a06000 	mov	r6, r0
    35b4:	e1a04002 	mov	r4, r2
    35b8:	e596003c 	ldr	r0, [r6, #60]	@ 0x3c
    35bc:	e0800006 	add	r0, r0, r6
    35c0:	e3510c01 	cmp	r1, #256	@ 0x100
    35c4:	2a000004 	bcs	0x35dc
    35c8:	e1a01201 	lsl	r1, r1, #4
    35cc:	e59f015c 	ldr	r0, [pc, #348]	@ 0x3730
    35d0:	e0815000 	add	r5, r1, r0
    35d4:	e5950000 	ldr	r0, [r5]
    35d8:	ea000005 	b	0x35f4
    35dc:	e2411c01 	sub	r1, r1, #256	@ 0x100
    35e0:	e1a01201 	lsl	r1, r1, #4
    35e4:	e2811004 	add	r1, r1, #4
    35e8:	e0815000 	add	r5, r1, r0
    35ec:	e5950000 	ldr	r0, [r5]
    35f0:	e0800006 	add	r0, r0, r6
    35f4:	e59f7104 	ldr	r7, [pc, #260]	@ 0x3700
    35f8:	e58c5120 	str	r5, [ip, #288]	@ 0x120
    35fc:	e5952004 	ldr	r2, [r5, #4]
    3600:	e5953006 	ldr	r3, [r5, #6]
    3604:	e0022007 	and	r2, r2, r7
    3608:	e0033007 	and	r3, r3, r7
    360c:	e1b04004 	movs	r4, r4
    3610:	0a000009 	beq	0x363c
    3614:	e92d8000 	stmfd	sp!, {pc}
    3618:	e1a00000 	nop			@ (mov r0, r0)
    361c:	ea00000c 	b	0x3654
    3620:	e0800001 	add	r0, r0, r1
    3624:	e3100402 	tst	r0, #33554432	@ 0x2000000
    3628:	0a000002 	beq	0x3638
    362c:	e1b02002 	movs	r2, r2
    3630:	0a000001 	beq	0x363c
    3634:	e0422004 	sub	r2, r2, r4
    3638:	e0433004 	sub	r3, r3, r4
    363c:	e59f40cc 	ldr	r4, [pc, #204]	@ 0x3710
    3640:	e1a01820 	lsr	r1, r0, #16
    3644:	e0000007 	and	r0, r0, r7
    3648:	e0011004 	and	r1, r1, r4
    364c:	e8bd00f0 	pop	{r4, r5, r6, r7}
    3650:	e8bd8000 	ldmfd	sp!, {pc}
    3654:	e2001506 	and	r1, r0, #25165824	@ 0x1800000
    3658:	e1b01ba1 	lsrs	r1, r1, #23
    365c:	0a000005 	beq	0x3678
    3660:	e3510001 	cmp	r1, #1
    3664:	0a000001 	beq	0x3670
    3668:	e1a010a4 	lsr	r1, r4, #1
    366c:	ea000002 	b	0x367c
    3670:	e1a01004 	mov	r1, r4
    3674:	ea000000 	b	0x367c
    3678:	e1a01084 	lsl	r1, r4, #1
    367c:	e8bd8000 	ldmfd	sp!, {pc}
    3680:	e5901050 	ldr	r1, [r0, #80]	@ 0x50
    3684:	e1b02081 	lsls	r2, r1, #1
    3688:	3a000012 	bcc	0x36d8
    368c:	e5da3005 	ldrb	r3, [sl, #5]
    3690:	e5dc1000 	ldrb	r1, [ip]
    3694:	e0111003 	ands	r1, r1, r3
    3698:	0a000001 	beq	0x36a4
    369c:	e5900054 	ldr	r0, [r0, #84]	@ 0x54
    36a0:	ea00000c 	b	0x36d8
    36a4:	e92d0001 	stmfd	sp!, {r0}
    36a8:	e1a000a2 	lsr	r0, r2, #1
    36ac:	e92d8000 	stmfd	sp!, {pc}
    36b0:	e1a00000 	nop			@ (mov r0, r0)
    36b4:	eafffaf6 	b	0x2294
    36b8:	e8bd0001 	ldmfd	sp!, {r0}
    36bc:	e1a02000 	mov	r2, r0
    36c0:	11a00001 	movne	r0, r1
    36c4:	e5820054 	str	r0, [r2, #84]	@ 0x54
    36c8:	e5da3005 	ldrb	r3, [sl, #5]
    36cc:	e5dc1000 	ldrb	r1, [ip]
    36d0:	e1811003 	orr	r1, r1, r3
    36d4:	e5cc1000 	strb	r1, [ip]
    36d8:	e8bd8000 	ldmfd	sp!, {pc}
    36dc:	000036e0 	andeq	r3, r0, r0, ror #13
    36e0:	0f7f00f7 	svceq	0x007f00f7
    36e4:	00003730 	andeq	r3, r0, r0, lsr r7
    36e8:	0000c800 	andeq	ip, r0, r0, lsl #16
    36ec:	0000c0c0 	andeq	ip, r0, r0, asr #1
    36f0:	a0003800 	andge	r3, r0, r0, lsl #16
    36f4:	0f0000ff 	svceq	0x000000ff
    36f8:	0000eb00 	andeq	lr, r0, r0, lsl #22
    36fc:	000038ec 	andeq	r3, r0, ip, ror #17
    3700:	0000ffff 	strdeq	pc, [r0], -pc	@ <UNPREDICTABLE>
    3704:	0000c308 	andeq	ip, r0, r8, lsl #6
    3708:	0000c304 	andeq	ip, r0, r4, lsl #6
    370c:	0000d800 	andeq	sp, r0, r0, lsl #16
    3710:	000007ff 	strdeq	r0, [r0], -pc	@ <UNPREDICTABLE>
    3714:	00001f1f 	andeq	r1, r0, pc, lsl pc
    3718:	00003f08 	andeq	r3, r0, r8, lsl #30
    371c:	00003f24 	andeq	r3, r0, r4, lsr #30
    3720:	00003f68 	andeq	r3, r0, r8, ror #30
    3724:	00004068 	andeq	r4, r0, r8, rrx
    3728:	0f000007 	svceq	0x00000007
    372c:	0000829c 	muleq	r0, ip, r2
    3730:	00008928 	andeq	r8, r0, r8, lsr #18
    3734:	e58c00e0 	str	r0, [ip, #224]	@ 0xe0
    3738:	e1a01e20 	lsr	r1, r0, #28
    373c:	e3510008 	cmp	r1, #8
    3740:	3a00008e 	bcc	0x3980
    3744:	e2011007 	and	r1, r1, #7
    3748:	e1a01101 	lsl	r1, r1, #2
    374c:	e59f274c 	ldr	r2, [pc, #1868]	@ 0x3ea0
    3750:	e7922001 	ldr	r2, [r2, r1]
    3754:	e59fb748 	ldr	fp, [pc, #1864]	@ 0x3ea4
    3758:	e1a0f002 	mov	pc, r2
    375c:	000036b8 			@ <UNDEFINED> instruction: 0x000036b8
    3760:	00003894 	muleq	r0, r4, r8
    3764:	0000467c 	andeq	r4, r0, ip, ror r6
    3768:	00004e20 	andeq	r4, r0, r0, lsr #28
    376c:	00003e90 	muleq	r0, r0, lr
    3770:	00003f3c 	andeq	r3, r0, ip, lsr pc
    3774:	00003f40 	andeq	r3, r0, r0, asr #30
    3778:	00003f84 	andeq	r3, r0, r4, lsl #31
    377c:	e1a01c20 	lsr	r1, r0, #24
    3780:	e201100f 	and	r1, r1, #15
    3784:	e1a01081 	lsl	r1, r1, #1
    3788:	e59f2718 	ldr	r2, [pc, #1816]	@ 0x3ea8
    378c:	e7923001 	ldr	r3, [r2, r1]
    3790:	e003300b 	and	r3, r3, fp
    3794:	e0822003 	add	r2, r2, r3
    3798:	e1a0f002 	mov	pc, r2
    379c:	00480020 	subeq	r0, r8, r0, lsr #32
    37a0:	00580050 	subseq	r0, r8, r0, asr r0
    37a4:	007c0074 	rsbseq	r0, ip, r4, ror r0
    37a8:	008400a0 	addeq	r0, r4, r0, lsr #1
    37ac:	01cc01cc 	biceq	r0, ip, ip, asr #3
    37b0:	01cc01cc 	biceq	r0, ip, ip, asr #3
    37b4:	01cc01cc 	biceq	r0, ip, ip, asr #3
    37b8:	01e401e4 	mvneq	r0, r4, ror #3
    37bc:	e1a01820 	lsr	r1, r0, #16
    37c0:	e21110ff 	ands	r1, r1, #255	@ 0xff
    37c4:	e351003f 	cmp	r1, #63	@ 0x3f
    37c8:	8a00006c 	bhi	0x3980
    37cc:	e1a01081 	lsl	r1, r1, #1
    37d0:	e59f26d4 	ldr	r2, [pc, #1748]	@ 0x3eac
    37d4:	e7923001 	ldr	r3, [r2, r1]
    37d8:	e003300b 	and	r3, r3, fp
    37dc:	e0822003 	add	r2, r2, r3
    37e0:	e1a0f002 	mov	pc, r2
    37e4:	e59f26c4 	ldr	r2, [pc, #1732]	@ 0x3eb0
    37e8:	ea000002 	b	0x37f8
    37ec:	e59f26c0 	ldr	r2, [pc, #1728]	@ 0x3eb4
    37f0:	ea000000 	b	0x37f8
    37f4:	e59f26bc 	ldr	r2, [pc, #1724]	@ 0x3eb8
    37f8:	e1a017a0 	lsr	r1, r0, #15
    37fc:	e201101f 	and	r1, r1, #31
    3800:	e7923001 	ldr	r3, [r2, r1]
    3804:	e003300b 	and	r3, r3, fp
    3808:	e0822003 	add	r2, r2, r3
    380c:	e1a0f002 	mov	pc, r2
    3810:	e59f26a4 	ldr	r2, [pc, #1700]	@ 0x3ebc
    3814:	ea000002 	b	0x3824
    3818:	e59f26a0 	ldr	r2, [pc, #1696]	@ 0x3ec0
    381c:	ea000000 	b	0x3824
    3820:	e59f269c 	ldr	r2, [pc, #1692]	@ 0x3ec4
    3824:	e1a019a0 	lsr	r1, r0, #19
    3828:	e201100e 	and	r1, r1, #14
    382c:	e7923001 	ldr	r3, [r2, r1]
    3830:	e003300b 	and	r3, r3, fp
    3834:	e0822003 	add	r2, r2, r3
    3838:	e1a0f002 	mov	pc, r2
    383c:	ea0007d2 	b	0x578c
    3840:	02b80080 	adcseq	r0, r8, #128	@ 0x80
    3844:	012802e0 	smulwteq	r8, r0, r2
    3848:	02fc02f4 	rscseq	r0, ip, #244, 4	@ 0x4000000f
    384c:	03440128 	movteq	r0, #16680	@ 0x4128
    3850:	01280140 			@ <UNDEFINED> instruction: 0x01280140
    3854:	01400128 	cmpeq	r0, r8, lsr #2
    3858:	01400140 	cmpeq	r0, r0, asr #2
    385c:	01400140 	cmpeq	r0, r0, asr #2
    3860:	030c0304 	movweq	r0, #49924	@ 0xc304
    3864:	01400140 	cmpeq	r0, r0, asr #2
    3868:	01400140 	cmpeq	r0, r0, asr #2
    386c:	01400140 	cmpeq	r0, r0, asr #2
    3870:	03740368 	cmneq	r4, #104, 6	@ 0xa0000001
    3874:	03a80394 			@ <UNDEFINED> instruction: 0x03a80394
    3878:	014003c0 	smlalbteq	r0, r0, r0, r3	@ <UNPREDICTABLE>
    387c:	01400140 	cmpeq	r0, r0, asr #2
    3880:	01400140 	cmpeq	r0, r0, asr #2
    3884:	01400140 	cmpeq	r0, r0, asr #2
    3888:	01400140 	cmpeq	r0, r0, asr #2
    388c:	01400140 	cmpeq	r0, r0, asr #2
    3890:	04840470 	streq	r0, [r4], #1136	@ 0x470
    3894:	01400140 	cmpeq	r0, r0, asr #2
    3898:	01400140 	cmpeq	r0, r0, asr #2
    389c:	04980140 	ldreq	r0, [r8], #320	@ 0x140
    38a0:	014004a8 	smlaltbeq	r0, r0, r8, r4	@ <UNPREDICTABLE>
    38a4:	01400140 	cmpeq	r0, r0, asr #2
    38a8:	01400140 	cmpeq	r0, r0, asr #2
    38ac:	01400140 	cmpeq	r0, r0, asr #2
    38b0:	050004bc 	streq	r0, [r0, #-1212]	@ 0xfffffb44
    38b4:	01400140 	cmpeq	r0, r0, asr #2
    38b8:	01400140 	cmpeq	r0, r0, asr #2
    38bc:	01400140 	cmpeq	r0, r0, asr #2
    38c0:	e1a01420 	lsr	r1, r0, #8
    38c4:	e21110ff 	ands	r1, r1, #255	@ 0xff
    38c8:	e351003f 	cmp	r1, #63	@ 0x3f
    38cc:	8a00002b 	bhi	0x3980
    38d0:	e1a01081 	lsl	r1, r1, #1
    38d4:	e59f25ec 	ldr	r2, [pc, #1516]	@ 0x3ec8
    38d8:	e7923001 	ldr	r3, [r2, r1]
    38dc:	e003300b 	and	r3, r3, fp
    38e0:	e0822003 	add	r2, r2, r3
    38e4:	e1a0f002 	mov	pc, r2
    38e8:	009c0098 	umullseq	r0, ip, r8, r0
    38ec:	00c800b8 	strheq	r0, [r8], #8
    38f0:	00980158 	addseq	r0, r8, r8, asr r1
    38f4:	00980098 	umullseq	r0, r8, r8, r0
    38f8:	017c0168 	cmneq	ip, r8, ror #2
    38fc:	01b801ac 			@ <UNDEFINED> instruction: 0x01b801ac
    3900:	00800080 	addeq	r0, r0, r0, lsl #1
    3904:	01c40080 	biceq	r0, r4, r0, lsl #1
    3908:	00d401d0 	ldrsbeq	r0, [r4], #16
    390c:	00f400e4 	rscseq	r0, r4, r4, ror #1
    3910:	00980098 	umullseq	r0, r8, r8, r0
    3914:	00980098 	umullseq	r0, r8, r8, r0
    3918:	00800080 	addeq	r0, r0, r0, lsl #1
    391c:	00980098 	umullseq	r0, r8, r8, r0
    3920:	00980098 	umullseq	r0, r8, r8, r0
    3924:	00980098 	umullseq	r0, r8, r8, r0
    3928:	01ec01e0 	mvneq	r0, r0, ror #3
    392c:	009801f8 			@ <UNDEFINED> instruction: 0x009801f8
    3930:	00980098 	umullseq	r0, r8, r8, r0
    3934:	00980098 	umullseq	r0, r8, r8, r0
    3938:	00980098 	umullseq	r0, r8, r8, r0
    393c:	00980098 	umullseq	r0, r8, r8, r0
    3940:	00980098 	umullseq	r0, r8, r8, r0
    3944:	00980098 	umullseq	r0, r8, r8, r0
    3948:	00980098 	umullseq	r0, r8, r8, r0
    394c:	00980098 	umullseq	r0, r8, r8, r0
    3950:	00980098 	umullseq	r0, r8, r8, r0
    3954:	00980098 	umullseq	r0, r8, r8, r0
    3958:	00980204 	addseq	r0, r8, r4, lsl #4
    395c:	00980098 	umullseq	r0, r8, r8, r0
    3960:	00980098 	umullseq	r0, r8, r8, r0
    3964:	00980098 	umullseq	r0, r8, r8, r0
    3968:	e59c00e0 	ldr	r0, [ip, #224]	@ 0xe0
    396c:	e3100040 	tst	r0, #64	@ 0x40
    3970:	1a000002 	bne	0x3980
    3974:	e92d8000 	stmfd	sp!, {pc}
    3978:	e1a00000 	nop			@ (mov r0, r0)
    397c:	ea000ba4 	b	0x6814
    3980:	e8bd8000 	ldmfd	sp!, {pc}
    3984:	e92d8000 	stmfd	sp!, {pc}
    3988:	e1a00000 	nop			@ (mov r0, r0)
    398c:	ea000942 	b	0x5e9c
    3990:	e59f0534 	ldr	r0, [pc, #1332]	@ 0x3ecc
    3994:	e3a01000 	mov	r1, #0
    3998:	e3a02000 	mov	r2, #0
    399c:	ea00001e 	b	0x3a1c
    39a0:	e59f0528 	ldr	r0, [pc, #1320]	@ 0x3ed0
    39a4:	e3a01000 	mov	r1, #0
    39a8:	e3a02001 	mov	r2, #1
    39ac:	ea00001a 	b	0x3a1c
    39b0:	e59f051c 	ldr	r0, [pc, #1308]	@ 0x3ed4
    39b4:	e3a01000 	mov	r1, #0
    39b8:	ea00000a 	b	0x39e8
    39bc:	e59f0508 	ldr	r0, [pc, #1288]	@ 0x3ecc
    39c0:	e3a01007 	mov	r1, #7
    39c4:	e3a02000 	mov	r2, #0
    39c8:	ea00000a 	b	0x39f8
    39cc:	e59f04fc 	ldr	r0, [pc, #1276]	@ 0x3ed0
    39d0:	e3a01007 	mov	r1, #7
    39d4:	e3a02001 	mov	r2, #1
    39d8:	ea000006 	b	0x39f8
    39dc:	e59f04f0 	ldr	r0, [pc, #1264]	@ 0x3ed4
    39e0:	e3a01007 	mov	r1, #7
    39e4:	eaffffff 	b	0x39e8
    39e8:	e92d8000 	stmfd	sp!, {pc}
    39ec:	e1a00000 	nop			@ (mov r0, r0)
    39f0:	eafff83f 	b	0x1af4
    39f4:	eaffffdb 	b	0x3968
    39f8:	e5cc20f0 	strb	r2, [ip, #240]	@ 0xf0
    39fc:	e92d8000 	stmfd	sp!, {pc}
    3a00:	e1a00000 	nop			@ (mov r0, r0)
    3a04:	eafff83a 	b	0x1af4
    3a08:	e59f04c8 	ldr	r0, [pc, #1224]	@ 0x3ed8
    3a0c:	e92d8000 	stmfd	sp!, {pc}
    3a10:	e1a00000 	nop			@ (mov r0, r0)
    3a14:	eafff783 	b	0x1828
    3a18:	eaffffd2 	b	0x3968
    3a1c:	e5cc20f0 	strb	r2, [ip, #240]	@ 0xf0
    3a20:	e92d8000 	stmfd	sp!, {pc}
    3a24:	e1a00000 	nop			@ (mov r0, r0)
    3a28:	eafff831 	b	0x1af4
    3a2c:	e59f04a4 	ldr	r0, [pc, #1188]	@ 0x3ed8
    3a30:	e92d8000 	stmfd	sp!, {pc}
    3a34:	e1a00000 	nop			@ (mov r0, r0)
    3a38:	eafff755 	b	0x1794
    3a3c:	eaffffc9 	b	0x3968
    3a40:	e92d8000 	stmfd	sp!, {pc}
    3a44:	e1a00000 	nop			@ (mov r0, r0)
    3a48:	ea000913 	b	0x5e9c
    3a4c:	eaffffcb 	b	0x3980
    3a50:	e92d8000 	stmfd	sp!, {pc}
    3a54:	e1a00000 	nop			@ (mov r0, r0)
    3a58:	ea0005ca 	b	0x5188
    3a5c:	e3a03000 	mov	r3, #0
    3a60:	ea000003 	b	0x3a74
    3a64:	e92d8000 	stmfd	sp!, {pc}
    3a68:	e1a00000 	nop			@ (mov r0, r0)
    3a6c:	ea0005ca 	b	0x519c
    3a70:	e3a03080 	mov	r3, #128	@ 0x80
    3a74:	e5cc301f 	strb	r3, [ip, #31]
    3a78:	e59f246c 	ldr	r2, [pc, #1132]	@ 0x3eec
    3a7c:	e59f146c 	ldr	r1, [pc, #1132]	@ 0x3ef0
    3a80:	e5d20011 	ldrb	r0, [r2, #17]
    3a84:	e200007f 	and	r0, r0, #127	@ 0x7f
    3a88:	e1800003 	orr	r0, r0, r3
    3a8c:	e5c10001 	strb	r0, [r1, #1]
    3a90:	eaffffba 	b	0x3980
    3a94:	e5dc0001 	ldrb	r0, [ip, #1]
    3a98:	e3800002 	orr	r0, r0, #2
    3a9c:	ea000007 	b	0x3ac0
    3aa0:	e5dc0001 	ldrb	r0, [ip, #1]
    3aa4:	e20000fd 	and	r0, r0, #253	@ 0xfd
    3aa8:	ea000004 	b	0x3ac0
    3aac:	e5dc0001 	ldrb	r0, [ip, #1]
    3ab0:	e3800001 	orr	r0, r0, #1
    3ab4:	ea000001 	b	0x3ac0
    3ab8:	e5dc0001 	ldrb	r0, [ip, #1]
    3abc:	e20000fe 	and	r0, r0, #254	@ 0xfe
    3ac0:	e5cc0001 	strb	r0, [ip, #1]
    3ac4:	eaffffad 	b	0x3980
    3ac8:	e3a00001 	mov	r0, #1
    3acc:	e5cc000b 	strb	r0, [ip, #11]
    3ad0:	eaffffaa 	b	0x3980
    3ad4:	e3a00000 	mov	r0, #0
    3ad8:	e5cc001d 	strb	r0, [ip, #29]
    3adc:	eaffffa7 	b	0x3980
    3ae0:	e3a00001 	mov	r0, #1
    3ae4:	e5cc001d 	strb	r0, [ip, #29]
    3ae8:	eaffffa4 	b	0x3980
    3aec:	e3a00001 	mov	r0, #1
    3af0:	e5cc00be 	strb	r0, [ip, #190]	@ 0xbe
    3af4:	eaffffa1 	b	0x3980
    3af8:	e1a00420 	lsr	r0, r0, #8
    3afc:	e21000ff 	ands	r0, r0, #255	@ 0xff
    3b00:	e200007f 	and	r0, r0, #127	@ 0x7f
    3b04:	e5cc0005 	strb	r0, [ip, #5]
    3b08:	e59f03e4 	ldr	r0, [pc, #996]	@ 0x3ef4
    3b0c:	e3a01000 	mov	r1, #0
    3b10:	e92d8000 	stmfd	sp!, {pc}
    3b14:	e1a00000 	nop			@ (mov r0, r0)
    3b18:	eafff7f5 	b	0x1af4
    3b1c:	eaffff97 	b	0x3980
    3b20:	e59f03a8 	ldr	r0, [pc, #936]	@ 0x3ed0
    3b24:	e92d8000 	stmfd	sp!, {pc}
    3b28:	e1a00000 	nop			@ (mov r0, r0)
    3b2c:	eafff783 	b	0x1940
    3b30:	eaffff8c 	b	0x3968
    3b34:	e3a04014 	mov	r4, #20
    3b38:	ea000004 	b	0x3b50
    3b3c:	e3a04016 	mov	r4, #22
    3b40:	ea000002 	b	0x3b50
    3b44:	e3a04015 	mov	r4, #21
    3b48:	ea000000 	b	0x3b50
    3b4c:	e3a04017 	mov	r4, #23
    3b50:	e59f0384 	ldr	r0, [pc, #900]	@ 0x3edc
    3b54:	e92d8000 	stmfd	sp!, {pc}
    3b58:	e1a00000 	nop			@ (mov r0, r0)
    3b5c:	eafff6dd 	b	0x16d8
    3b60:	e59f0378 	ldr	r0, [pc, #888]	@ 0x3ee0
    3b64:	e92d8000 	stmfd	sp!, {pc}
    3b68:	e1a00000 	nop			@ (mov r0, r0)
    3b6c:	eafff6fd 	b	0x1768
    3b70:	e59f037c 	ldr	r0, [pc, #892]	@ 0x3ef4
    3b74:	e92d8000 	stmfd	sp!, {pc}
    3b78:	e1a00000 	nop			@ (mov r0, r0)
    3b7c:	eafff76f 	b	0x1940
    3b80:	eaffff7e 	b	0x3980
    3b84:	e59f0358 	ldr	r0, [pc, #856]	@ 0x3ee4
    3b88:	e92d8000 	stmfd	sp!, {pc}
    3b8c:	e1a00000 	nop			@ (mov r0, r0)
    3b90:	eafff6f4 	b	0x1768
    3b94:	e59f036c 	ldr	r0, [pc, #876]	@ 0x3f08
    3b98:	e92d8000 	stmfd	sp!, {pc}
    3b9c:	e1a00000 	nop			@ (mov r0, r0)
    3ba0:	eafff766 	b	0x1940
    3ba4:	eaffff75 	b	0x3980
    3ba8:	e3a00001 	mov	r0, #1
    3bac:	e5cc000a 	strb	r0, [ip, #10]
    3bb0:	eaffff72 	b	0x3980
    3bb4:	e59c00e0 	ldr	r0, [ip, #224]	@ 0xe0
    3bb8:	e200b007 	and	fp, r0, #7
    3bbc:	e1a0a420 	lsr	sl, r0, #8
    3bc0:	e21aa0ff 	ands	sl, sl, #255	@ 0xff
    3bc4:	e92d8000 	stmfd	sp!, {pc}
    3bc8:	e1a00000 	nop			@ (mov r0, r0)
    3bcc:	eafff21b 	b	0x440
    3bd0:	eaffff6a 	b	0x3980
    3bd4:	e1a01420 	lsr	r1, r0, #8
    3bd8:	e21110ff 	ands	r1, r1, #255	@ 0xff
    3bdc:	e201100f 	and	r1, r1, #15
    3be0:	e5cc1004 	strb	r1, [ip, #4]
    3be4:	eaffff65 	b	0x3980
    3be8:	e59f1300 	ldr	r1, [pc, #768]	@ 0x3ef0
    3bec:	e1a00420 	lsr	r0, r0, #8
    3bf0:	e21000ff 	ands	r0, r0, #255	@ 0xff
    3bf4:	e200000f 	and	r0, r0, #15
    3bf8:	e5c10000 	strb	r0, [r1]
    3bfc:	eaffff5f 	b	0x3980
    3c00:	e92d8000 	stmfd	sp!, {pc}
    3c04:	e1a00000 	nop			@ (mov r0, r0)
    3c08:	eafff922 	b	0x2098
    3c0c:	e59f12d4 	ldr	r1, [pc, #724]	@ 0x3ee8
    3c10:	e7d10000 	ldrb	r0, [r1, r0]
    3c14:	e5c40006 	strb	r0, [r4, #6]
    3c18:	e59f02d4 	ldr	r0, [pc, #724]	@ 0x3ef4
    3c1c:	e3a01007 	mov	r1, #7
    3c20:	e92d8000 	stmfd	sp!, {pc}
    3c24:	e1a00000 	nop			@ (mov r0, r0)
    3c28:	eafff7b1 	b	0x1af4
    3c2c:	eaffff53 	b	0x3980
    3c30:	130f0b00 	movwne	r0, #64256	@ 0xfb00
    3c34:	1d1b1916 	vldrne.16	s2, [fp, #-44]	@ 0xffffffd4	@ <UNPREDICTABLE>
    3c38:	2523211f 	strcs	r2, [r3, #-287]!	@ 0xfffffee1
    3c3c:	2b2a2827 	blcs	0xa8dce0
    3c40:	312f2e2d 			@ <UNDEFINED> instruction: 0x312f2e2d
    3c44:	36343332 			@ <UNDEFINED> instruction: 0x36343332
    3c48:	3a393837 	bcc	0xe51d2c
    3c4c:	3e3d3c3b 	mrccc	12, 1, r3, cr13, cr11, {1}
    3c50:	4241403f 	submi	r4, r1, #63	@ 0x3f
    3c54:	46454443 	strbmi	r4, [r5], -r3, asr #8
    3c58:	49494847 	stmdbmi	r9, {r0, r1, r2, r6, fp, lr}^
    3c5c:	4d4c4b4a 	vstrmi	d20, [ip, #-296]	@ 0xfffffed8
    3c60:	504f4e4e 	subpl	r4, pc, lr, asr #28
    3c64:	53525251 	cmppl	r2, #268435461	@ 0x10000005
    3c68:	56555554 			@ <UNDEFINED> instruction: 0x56555554
    3c6c:	59585857 	ldmdbpl	r8, {r0, r1, r2, r4, r6, fp, ip, lr}^
    3c70:	5c5b5a5a 	mrrcpl	10, 5, r5, fp, cr10
    3c74:	5e5e5d5c 	mrcpl	13, 2, r5, cr14, cr12, {2}
    3c78:	6160605f 	qdsubvs	r6, pc, r0	@ <UNPREDICTABLE>
    3c7c:	64636262 	strbtvs	r6, [r3], #-610	@ 0xfffffd9e
    3c80:	66666564 	strbtvs	r6, [r6], -r4, ror #10
    3c84:	69686767 	stmdbvs	r8!, {r0, r1, r2, r5, r6, r8, r9, sl, sp, lr}^
    3c88:	6b6a6a69 	blvs	0x1a9e634
    3c8c:	6d6d6c6c 	stclvs	12, cr6, [sp, #-432]!	@ 0xfffffe50
    3c90:	706f6e6e 	rsbvc	r6, pc, lr, ror #28
    3c94:	72717170 	rsbsvc	r7, r1, #112, 2
    3c98:	74747372 	ldrbtvc	r7, [r4], #-882	@ 0xfffffc8e
    3c9c:	76767575 			@ <UNDEFINED> instruction: 0x76767575
    3ca0:	78787777 	ldmdavc	r8!, {r0, r1, r2, r4, r5, r6, r8, r9, sl, ip, sp, lr}^
    3ca4:	7a7a7979 	bvc	0x1ea2290
    3ca8:	7c7c7b7b 			@ <UNDEFINED> instruction: 0x7c7c7b7b
    3cac:	7f7e7d7d 	svcvc	0x007e7d7d
    3cb0:	e59f0240 	ldr	r0, [pc, #576]	@ 0x3ef8
    3cb4:	e92d8000 	stmfd	sp!, {pc}
    3cb8:	e1a00000 	nop			@ (mov r0, r0)
    3cbc:	eafff708 	b	0x18e4
    3cc0:	eaffff2e 	b	0x3980
    3cc4:	e59f0230 	ldr	r0, [pc, #560]	@ 0x3efc
    3cc8:	e92d8000 	stmfd	sp!, {pc}
    3ccc:	e1a00000 	nop			@ (mov r0, r0)
    3cd0:	eafff703 	b	0x18e4
    3cd4:	eaffff29 	b	0x3980
    3cd8:	e1a01420 	lsr	r1, r0, #8
    3cdc:	e21110ff 	ands	r1, r1, #255	@ 0xff
    3ce0:	e5cc101e 	strb	r1, [ip, #30]
    3ce4:	eaffff25 	b	0x3980
    3ce8:	e1a00420 	lsr	r0, r0, #8
    3cec:	e21000ff 	ands	r0, r0, #255	@ 0xff
    3cf0:	e200000f 	and	r0, r0, #15
    3cf4:	e5cc0002 	strb	r0, [ip, #2]
    3cf8:	eaffff20 	b	0x3980
    3cfc:	e1a00420 	lsr	r0, r0, #8
    3d00:	e21000ff 	ands	r0, r0, #255	@ 0xff
    3d04:	e2000007 	and	r0, r0, #7
    3d08:	e1a0b000 	mov	fp, r0
    3d0c:	e1a00280 	lsl	r0, r0, #5
    3d10:	e59f9200 	ldr	r9, [pc, #512]	@ 0x3f18
    3d14:	e0899000 	add	r9, r9, r0
    3d18:	e5d9a004 	ldrb	sl, [r9, #4]
    3d1c:	e3a000ff 	mov	r0, #255	@ 0xff
    3d20:	e15a0000 	cmp	sl, r0
    3d24:	0a000004 	beq	0x3d3c
    3d28:	e5c90004 	strb	r0, [r9, #4]
    3d2c:	e1a0800b 	mov	r8, fp
    3d30:	e92d8000 	stmfd	sp!, {pc}
    3d34:	e1a00000 	nop			@ (mov r0, r0)
    3d38:	eafff1c0 	b	0x440
    3d3c:	eaffff0f 	b	0x3980
    3d40:	e1a01420 	lsr	r1, r0, #8
    3d44:	e21110ff 	ands	r1, r1, #255	@ 0xff
    3d48:	e1a01801 	lsl	r1, r1, #16
    3d4c:	e3a004f1 	mov	r0, #-251658240	@ 0xf1000000
    3d50:	e1800001 	orr	r0, r0, r1
    3d54:	e92d8000 	stmfd	sp!, {pc}
    3d58:	e1a00000 	nop			@ (mov r0, r0)
    3d5c:	eafff7ec 	b	0x1d14
    3d60:	eaffff06 	b	0x3980
    3d64:	e5da0000 	ldrb	r0, [sl]
    3d68:	e3100040 	tst	r0, #64	@ 0x40
    3d6c:	0a000004 	beq	0x3d84
    3d70:	e8bd8000 	ldmfd	sp!, {pc}
    3d74:	e5da0000 	ldrb	r0, [sl]
    3d78:	e3100040 	tst	r0, #64	@ 0x40
    3d7c:	1a000000 	bne	0x3d84
    3d80:	e8bd8000 	ldmfd	sp!, {pc}
    3d84:	e5da0000 	ldrb	r0, [sl]
    3d88:	e3100014 	tst	r0, #20
    3d8c:	1a000005 	bne	0x3da8
    3d90:	e5da0001 	ldrb	r0, [sl, #1]
    3d94:	e3100040 	tst	r0, #64	@ 0x40
    3d98:	1a000002 	bne	0x3da8
    3d9c:	e92d8000 	stmfd	sp!, {pc}
    3da0:	e1a00000 	nop			@ (mov r0, r0)
    3da4:	eafff3ea 	b	0xd54
    3da8:	e8bd8000 	ldmfd	sp!, {pc}
    3dac:	e1a0b30b 	lsl	fp, fp, #6
    3db0:	e59f7164 	ldr	r7, [pc, #356]	@ 0x3f1c
    3db4:	e087700b 	add	r7, r7, fp
    3db8:	e597601c 	ldr	r6, [r7, #28]
    3dbc:	e5d71000 	ldrb	r1, [r7]
    3dc0:	e3110001 	tst	r1, #1
    3dc4:	0a000002 	beq	0x3dd4
    3dc8:	e5dc10f0 	ldrb	r1, [ip, #240]	@ 0xf0
    3dcc:	e3510001 	cmp	r1, #1
    3dd0:	0a000009 	beq	0x3dfc
    3dd4:	e1a00007 	mov	r0, r7
    3dd8:	e92d8000 	stmfd	sp!, {pc}
    3ddc:	e1a00000 	nop			@ (mov r0, r0)
    3de0:	eafff93b 	b	0x22d4
    3de4:	e5d6000b 	ldrb	r0, [r6, #11]
    3de8:	e5c7000b 	strb	r0, [r7, #11]
    3dec:	e5d6000c 	ldrb	r0, [r6, #12]
    3df0:	e5c7000c 	strb	r0, [r7, #12]
    3df4:	e5d6000d 	ldrb	r0, [r6, #13]
    3df8:	e5c7000d 	strb	r0, [r7, #13]
    3dfc:	e8bd8000 	ldmfd	sp!, {pc}
    3e00:	e1a0b30b 	lsl	fp, fp, #6
    3e04:	e59f5110 	ldr	r5, [pc, #272]	@ 0x3f1c
    3e08:	e085500b 	add	r5, r5, fp
    3e0c:	e1a0000a 	mov	r0, sl
    3e10:	e1a01005 	mov	r1, r5
    3e14:	e92d8000 	stmfd	sp!, {pc}
    3e18:	e1a00000 	nop			@ (mov r0, r0)
    3e1c:	eafff9f2 	b	0x25ec
    3e20:	e5c50010 	strb	r0, [r5, #16]
    3e24:	e8bd8000 	ldmfd	sp!, {pc}
    3e28:	e1a00420 	lsr	r0, r0, #8
    3e2c:	e21000ff 	ands	r0, r0, #255	@ 0xff
    3e30:	e200007f 	and	r0, r0, #127	@ 0x7f
    3e34:	e7cb0004 	strb	r0, [fp, r4]
    3e38:	e8bd8000 	ldmfd	sp!, {pc}
    3e3c:	e1a0b30b 	lsl	fp, fp, #6
    3e40:	e59f10d4 	ldr	r1, [pc, #212]	@ 0x3f1c
    3e44:	e081100b 	add	r1, r1, fp
    3e48:	e5d12000 	ldrb	r2, [r1]
    3e4c:	e3120001 	tst	r2, #1
    3e50:	1a000003 	bne	0x3e64
    3e54:	e1a00420 	lsr	r0, r0, #8
    3e58:	e21000ff 	ands	r0, r0, #255	@ 0xff
    3e5c:	e2400040 	sub	r0, r0, #64	@ 0x40
    3e60:	e5c1000c 	strb	r0, [r1, #12]
    3e64:	e8bd8000 	ldmfd	sp!, {pc}
    3e68:	e1a0b30b 	lsl	fp, fp, #6
    3e6c:	e59f70a8 	ldr	r7, [pc, #168]	@ 0x3f1c
    3e70:	e087700b 	add	r7, r7, fp
    3e74:	e5d70001 	ldrb	r0, [r7, #1]
    3e78:	e3800001 	orr	r0, r0, #1
    3e7c:	e5c70001 	strb	r0, [r7, #1]
    3e80:	e8bd8000 	ldmfd	sp!, {pc}
    3e84:	e1a0b30b 	lsl	fp, fp, #6
    3e88:	e59f708c 	ldr	r7, [pc, #140]	@ 0x3f1c
    3e8c:	e087700b 	add	r7, r7, fp
    3e90:	e5d70001 	ldrb	r0, [r7, #1]
    3e94:	e20000fe 	and	r0, r0, #254	@ 0xfe
    3e98:	e5c70001 	strb	r0, [r7, #1]
    3e9c:	e8bd8000 	ldmfd	sp!, {pc}
    3ea0:	0000465c 	andeq	r4, r0, ip, asr r6
    3ea4:	0000ffff 	strdeq	pc, [r0], -pc	@ <UNPREDICTABLE>
    3ea8:	0000469c 	muleq	r0, ip, r6
    3eac:	00004740 	andeq	r4, r0, r0, asr #14
    3eb0:	0000565c 	andeq	r5, r0, ip, asr r6
    3eb4:	0000567c 	andeq	r5, r0, ip, ror r6
    3eb8:	00005e00 	andeq	r5, r0, r0, lsl #28
    3ebc:	00005e20 	andeq	r5, r0, r0, lsr #28
    3ec0:	000064c0 	andeq	r6, r0, r0, asr #9
    3ec4:	000064d0 	ldrdeq	r6, [r0], -r0
    3ec8:	000047e8 	andeq	r4, r0, r8, ror #15
    3ecc:	00004c84 	andeq	r4, r0, r4, lsl #25
    3ed0:	00004c64 	andeq	r4, r0, r4, ror #24
    3ed4:	00004c74 	andeq	r4, r0, r4, ror ip
    3ed8:	00004cac 	andeq	r4, r0, ip, lsr #25
    3edc:	00004d28 	andeq	r4, r0, r8, lsr #26
    3ee0:	00004d00 	andeq	r4, r0, r0, lsl #26
    3ee4:	00004d3c 	andeq	r4, r0, ip, lsr sp
    3ee8:	00004b30 	andeq	r4, r0, r0, lsr fp
    3eec:	00000040 	andeq	r0, r0, r0, asr #32
    3ef0:	00802800 	addeq	r2, r0, r0, lsl #16
    3ef4:	00003f88 	andeq	r3, r0, r8, lsl #31
    3ef8:	00004d68 	andeq	r4, r0, r8, ror #26
    3efc:	00004d84 	andeq	r4, r0, r4, lsl #27
	...
    3f08:	00004068 	andeq	r4, r0, r8, rrx
	...
    3f18:	0000eb00 	andeq	lr, r0, r0, lsl #22
    3f1c:	0000c800 	andeq	ip, r0, r0, lsl #16
    3f20:	e1a01820 	lsr	r1, r0, #16
    3f24:	e21110ff 	ands	r1, r1, #255	@ 0xff
    3f28:	e351007f 	cmp	r1, #127	@ 0x7f
    3f2c:	8afffe93 	bhi	0x3980
    3f30:	e1a01081 	lsl	r1, r1, #1
    3f34:	e59f27b4 	ldr	r2, [pc, #1972]	@ 0x46f0
    3f38:	e7923001 	ldr	r3, [r2, r1]
    3f3c:	e003300b 	and	r3, r3, fp
    3f40:	e0822003 	add	r2, r2, r3
    3f44:	e1a0f002 	mov	pc, r2
    3f48:	01140100 	tsteq	r4, r0, lsl #2
    3f4c:	02a00128 	adceq	r0, r0, #40, 2
    3f50:	02a002a0 	adceq	r0, r0, #160, 4
    3f54:	015002a0 	cmpeq	r0, r0, lsr #5
    3f58:	02a002a0 	adceq	r0, r0, #160, 4
    3f5c:	02a0018c 	adceq	r0, r0, #140, 2	@ 0x23
    3f60:	020c01cc 	andeq	r0, ip, #204, 2	@ 0x33
    3f64:	02a002a0 	adceq	r0, r0, #160, 4
    3f68:	02a002a0 	adceq	r0, r0, #160, 4
    3f6c:	02a002a0 	adceq	r0, r0, #160, 4
    3f70:	02a002a0 	adceq	r0, r0, #160, 4
    3f74:	02a002a0 	adceq	r0, r0, #160, 4
    3f78:	02a002a0 	adceq	r0, r0, #160, 4
    3f7c:	02a002a0 	adceq	r0, r0, #160, 4
    3f80:	02a002a0 	adceq	r0, r0, #160, 4
    3f84:	02a002a0 	adceq	r0, r0, #160, 4
    3f88:	02a002a0 	adceq	r0, r0, #160, 4
    3f8c:	02a002a0 	adceq	r0, r0, #160, 4
    3f90:	02a002a0 	adceq	r0, r0, #160, 4
    3f94:	017802a0 	cmneq	r8, r0, lsr #5
    3f98:	02a002a0 	adceq	r0, r0, #160, 4
    3f9c:	02a001b8 	adceq	r0, r0, #184, 2	@ 0x2e
    3fa0:	023801f8 	eorseq	r0, r8, #248, 2	@ 0x3e
    3fa4:	02a002a0 	adceq	r0, r0, #160, 4
    3fa8:	02a002a0 	adceq	r0, r0, #160, 4
    3fac:	02a002a0 	adceq	r0, r0, #160, 4
    3fb0:	02a002a0 	adceq	r0, r0, #160, 4
    3fb4:	02a002a0 	adceq	r0, r0, #160, 4
    3fb8:	02a002a0 	adceq	r0, r0, #160, 4
    3fbc:	02a002a0 	adceq	r0, r0, #160, 4
    3fc0:	02a002a0 	adceq	r0, r0, #160, 4
    3fc4:	02a002a0 	adceq	r0, r0, #160, 4
    3fc8:	0274024c 	rsbseq	r0, r4, #76, 4	@ 0xc0000004
    3fcc:	02a002a0 	adceq	r0, r0, #160, 4
    3fd0:	02a002a0 	adceq	r0, r0, #160, 4
    3fd4:	02a002a0 	adceq	r0, r0, #160, 4
    3fd8:	02a002a0 	adceq	r0, r0, #160, 4
    3fdc:	02a002a0 	adceq	r0, r0, #160, 4
    3fe0:	02a002a0 	adceq	r0, r0, #160, 4
    3fe4:	02a002a0 	adceq	r0, r0, #160, 4
    3fe8:	02a002a0 	adceq	r0, r0, #160, 4
    3fec:	02a002a0 	adceq	r0, r0, #160, 4
    3ff0:	02a002a0 	adceq	r0, r0, #160, 4
    3ff4:	02a002a0 	adceq	r0, r0, #160, 4
    3ff8:	02a002a0 	adceq	r0, r0, #160, 4
    3ffc:	02a002a0 	adceq	r0, r0, #160, 4
    4000:	02a002a0 	adceq	r0, r0, #160, 4
    4004:	02a002a0 	adceq	r0, r0, #160, 4
    4008:	02a002a0 	adceq	r0, r0, #160, 4
    400c:	02a002a0 	adceq	r0, r0, #160, 4
    4010:	02a002a0 	adceq	r0, r0, #160, 4
    4014:	02a002a0 	adceq	r0, r0, #160, 4
    4018:	02a002a0 	adceq	r0, r0, #160, 4
    401c:	02a002a0 	adceq	r0, r0, #160, 4
    4020:	02a002a0 	adceq	r0, r0, #160, 4
    4024:	02a002a0 	adceq	r0, r0, #160, 4
    4028:	02a002a0 	adceq	r0, r0, #160, 4
    402c:	02a002a0 	adceq	r0, r0, #160, 4
    4030:	02a002a0 	adceq	r0, r0, #160, 4
    4034:	02a002a0 	adceq	r0, r0, #160, 4
    4038:	02a00288 	adceq	r0, r0, #136, 4	@ 0x80000008
    403c:	02a002a0 	adceq	r0, r0, #160, 4
    4040:	02a002a0 	adceq	r0, r0, #160, 4
    4044:	02a002a0 	adceq	r0, r0, #160, 4
    4048:	e59f06a4 	ldr	r0, [pc, #1700]	@ 0x46f4
    404c:	e92d8000 	stmfd	sp!, {pc}
    4050:	e1a00000 	nop			@ (mov r0, r0)
    4054:	eafff610 	b	0x189c
    4058:	eafffe48 	b	0x3980
    405c:	e59f0694 	ldr	r0, [pc, #1684]	@ 0x46f8
    4060:	e92d8000 	stmfd	sp!, {pc}
    4064:	e1a00000 	nop			@ (mov r0, r0)
    4068:	eafff60b 	b	0x189c
    406c:	ea000003 	b	0x4080
    4070:	e59f0684 	ldr	r0, [pc, #1668]	@ 0x46fc
    4074:	e92d8000 	stmfd	sp!, {pc}
    4078:	e1a00000 	nop			@ (mov r0, r0)
    407c:	eafff606 	b	0x189c
    4080:	e59f0678 	ldr	r0, [pc, #1656]	@ 0x4700
    4084:	e59f1678 	ldr	r1, [pc, #1656]	@ 0x4704
    4088:	e92d8000 	stmfd	sp!, {pc}
    408c:	e1a00000 	nop			@ (mov r0, r0)
    4090:	eafff632 	b	0x1960
    4094:	eafffe39 	b	0x3980
    4098:	e59f0668 	ldr	r0, [pc, #1640]	@ 0x4708
    409c:	e92d8000 	stmfd	sp!, {pc}
    40a0:	e1a00000 	nop			@ (mov r0, r0)
    40a4:	eafff5fc 	b	0x189c
    40a8:	e59f065c 	ldr	r0, [pc, #1628]	@ 0x470c
    40ac:	e59f1650 	ldr	r1, [pc, #1616]	@ 0x4704
    40b0:	e92d8000 	stmfd	sp!, {pc}
    40b4:	e1a00000 	nop			@ (mov r0, r0)
    40b8:	eafff628 	b	0x1960
    40bc:	eafffe2f 	b	0x3980
    40c0:	e59f0640 	ldr	r0, [pc, #1600]	@ 0x4708
    40c4:	e92d8000 	stmfd	sp!, {pc}
    40c8:	e1a00000 	nop			@ (mov r0, r0)
    40cc:	eafff5f2 	b	0x189c
    40d0:	eafffe2a 	b	0x3980
    40d4:	e59f0634 	ldr	r0, [pc, #1588]	@ 0x4710
    40d8:	e92d8000 	stmfd	sp!, {pc}
    40dc:	e1a00000 	nop			@ (mov r0, r0)
    40e0:	eafff5ed 	b	0x189c
    40e4:	e59f0628 	ldr	r0, [pc, #1576]	@ 0x4714
    40e8:	e59f1614 	ldr	r1, [pc, #1556]	@ 0x4704
    40ec:	e5dc40e1 	ldrb	r4, [ip, #225]	@ 0xe1
    40f0:	e92d8000 	stmfd	sp!, {pc}
    40f4:	e1a00000 	nop			@ (mov r0, r0)
    40f8:	eafff618 	b	0x1960
    40fc:	eafffe1f 	b	0x3980
    4100:	e59f0608 	ldr	r0, [pc, #1544]	@ 0x4710
    4104:	e92d8000 	stmfd	sp!, {pc}
    4108:	e1a00000 	nop			@ (mov r0, r0)
    410c:	eafff5e2 	b	0x189c
    4110:	eafffe1a 	b	0x3980
    4114:	e59f05fc 	ldr	r0, [pc, #1532]	@ 0x4718
    4118:	e92d8000 	stmfd	sp!, {pc}
    411c:	e1a00000 	nop			@ (mov r0, r0)
    4120:	eafff5dd 	b	0x189c
    4124:	e59f05f0 	ldr	r0, [pc, #1520]	@ 0x471c
    4128:	e59f15d4 	ldr	r1, [pc, #1492]	@ 0x4704
    412c:	e5dc40e1 	ldrb	r4, [ip, #225]	@ 0xe1
    4130:	e92d8000 	stmfd	sp!, {pc}
    4134:	e1a00000 	nop			@ (mov r0, r0)
    4138:	eafff608 	b	0x1960
    413c:	eafffe0f 	b	0x3980
    4140:	e59f05d0 	ldr	r0, [pc, #1488]	@ 0x4718
    4144:	e92d8000 	stmfd	sp!, {pc}
    4148:	e1a00000 	nop			@ (mov r0, r0)
    414c:	eafff5d2 	b	0x189c
    4150:	eafffe0a 	b	0x3980
    4154:	e59f05c4 	ldr	r0, [pc, #1476]	@ 0x4720
    4158:	e92d8000 	stmfd	sp!, {pc}
    415c:	e1a00000 	nop			@ (mov r0, r0)
    4160:	eafff5cd 	b	0x189c
    4164:	e59f05b8 	ldr	r0, [pc, #1464]	@ 0x4724
    4168:	e59f1594 	ldr	r1, [pc, #1428]	@ 0x4704
    416c:	e5dc40e1 	ldrb	r4, [ip, #225]	@ 0xe1
    4170:	e92d8000 	stmfd	sp!, {pc}
    4174:	e1a00000 	nop			@ (mov r0, r0)
    4178:	eafff5f8 	b	0x1960
    417c:	eafffdff 	b	0x3980
    4180:	e59f0598 	ldr	r0, [pc, #1432]	@ 0x4720
    4184:	e92d8000 	stmfd	sp!, {pc}
    4188:	e1a00000 	nop			@ (mov r0, r0)
    418c:	eafff5c2 	b	0x189c
    4190:	eafffdfa 	b	0x3980
    4194:	e59f058c 	ldr	r0, [pc, #1420]	@ 0x4728
    4198:	e92d8000 	stmfd	sp!, {pc}
    419c:	e1a00000 	nop			@ (mov r0, r0)
    41a0:	eafff5bd 	b	0x189c
    41a4:	e59f0580 	ldr	r0, [pc, #1408]	@ 0x472c
    41a8:	e59f1554 	ldr	r1, [pc, #1364]	@ 0x4704
    41ac:	e92d8000 	stmfd	sp!, {pc}
    41b0:	e1a00000 	nop			@ (mov r0, r0)
    41b4:	eafff5e9 	b	0x1960
    41b8:	eafffdf0 	b	0x3980
    41bc:	e59f056c 	ldr	r0, [pc, #1388]	@ 0x4730
    41c0:	e92d8000 	stmfd	sp!, {pc}
    41c4:	e1a00000 	nop			@ (mov r0, r0)
    41c8:	eafff5b3 	b	0x189c
    41cc:	eafffdeb 	b	0x3980
    41d0:	e59f055c 	ldr	r0, [pc, #1372]	@ 0x4734
    41d4:	e3a01007 	mov	r1, #7
    41d8:	e92d8000 	stmfd	sp!, {pc}
    41dc:	e1a00000 	nop			@ (mov r0, r0)
    41e0:	eafff643 	b	0x1af4
    41e4:	eafffde5 	b	0x3980
    41e8:	eafffde4 	b	0x3980
    41ec:	e59a101c 	ldr	r1, [sl, #28]
    41f0:	e5d10006 	ldrb	r0, [r1, #6]
    41f4:	e3100080 	tst	r0, #128	@ 0x80
    41f8:	0a000009 	beq	0x4224
    41fc:	e1a00004 	mov	r0, r4
    4200:	e92d8000 	stmfd	sp!, {pc}
    4204:	e1a00000 	nop			@ (mov r0, r0)
    4208:	eafff8a0 	b	0x2490
    420c:	e5ca0014 	strb	r0, [sl, #20]
    4210:	e92d0010 	stmfd	sp!, {r4}
    4214:	e92d8000 	stmfd	sp!, {pc}
    4218:	e1a00000 	nop			@ (mov r0, r0)
    421c:	eafffbb7 	b	0x3100
    4220:	e8bd0010 	ldmfd	sp!, {r4}
    4224:	e8bd8000 	ldmfd	sp!, {pc}
    4228:	e59a101c 	ldr	r1, [sl, #28]
    422c:	e5d1001e 	ldrb	r0, [r1, #30]
    4230:	e3100080 	tst	r0, #128	@ 0x80
    4234:	0a000007 	beq	0x4258
    4238:	e1a01004 	mov	r1, r4
    423c:	e201100f 	and	r1, r1, #15
    4240:	e5db0020 	ldrb	r0, [fp, #32]
    4244:	e1a00220 	lsr	r0, r0, #4
    4248:	e92d8000 	stmfd	sp!, {pc}
    424c:	e1a00000 	nop			@ (mov r0, r0)
    4250:	eafff889 	b	0x247c
    4254:	e5cb0020 	strb	r0, [fp, #32]
    4258:	e8bd8000 	ldmfd	sp!, {pc}
    425c:	e59a101c 	ldr	r1, [sl, #28]
    4260:	e5d1001e 	ldrb	r0, [r1, #30]
    4264:	e3100080 	tst	r0, #128	@ 0x80
    4268:	0afffffa 	beq	0x4258
    426c:	e1a00004 	mov	r0, r4
    4270:	e200000f 	and	r0, r0, #15
    4274:	e5db1020 	ldrb	r1, [fp, #32]
    4278:	e201100f 	and	r1, r1, #15
    427c:	e92d8000 	stmfd	sp!, {pc}
    4280:	e1a00000 	nop			@ (mov r0, r0)
    4284:	eafff87c 	b	0x247c
    4288:	e5cb0020 	strb	r0, [fp, #32]
    428c:	e8bd8000 	ldmfd	sp!, {pc}
    4290:	e5da1000 	ldrb	r1, [sl]
    4294:	e20110fe 	and	r1, r1, #254	@ 0xfe
    4298:	e1a02420 	lsr	r2, r0, #8
    429c:	e21220ff 	ands	r2, r2, #255	@ 0xff
    42a0:	13811001 	orrne	r1, r1, #1
    42a4:	e5ca1000 	strb	r1, [sl]
    42a8:	1a000005 	bne	0x42c4
    42ac:	e3110002 	tst	r1, #2
    42b0:	0a000003 	beq	0x42c4
    42b4:	e1a0000b 	mov	r0, fp
    42b8:	e92d8000 	stmfd	sp!, {pc}
    42bc:	e1a00000 	nop			@ (mov r0, r0)
    42c0:	eafff70c 	b	0x1ef8
    42c4:	e8bd8000 	ldmfd	sp!, {pc}
    42c8:	e1b00c20 	lsrs	r0, r0, #24
    42cc:	e5da1007 	ldrb	r1, [sl, #7]
    42d0:	e200000f 	and	r0, r0, #15
    42d4:	e201100f 	and	r1, r1, #15
    42d8:	e1500001 	cmp	r0, r1
    42dc:	1a000002 	bne	0x42ec
    42e0:	e92d8000 	stmfd	sp!, {pc}
    42e4:	e1a00000 	nop			@ (mov r0, r0)
    42e8:	eafff299 	b	0xd54
    42ec:	e8bd8000 	ldmfd	sp!, {pc}
    42f0:	e1a0b30b 	lsl	fp, fp, #6
    42f4:	e59f144c 	ldr	r1, [pc, #1100]	@ 0x4748
    42f8:	e081100b 	add	r1, r1, fp
    42fc:	e1a00420 	lsr	r0, r0, #8
    4300:	e21000ff 	ands	r0, r0, #255	@ 0xff
    4304:	e5c10002 	strb	r0, [r1, #2]
    4308:	e8bd8000 	ldmfd	sp!, {pc}
    430c:	e1a0b30b 	lsl	fp, fp, #6
    4310:	e59f1430 	ldr	r1, [pc, #1072]	@ 0x4748
    4314:	e081100b 	add	r1, r1, fp
    4318:	e1a00420 	lsr	r0, r0, #8
    431c:	e21000ff 	ands	r0, r0, #255	@ 0xff
    4320:	e5c10014 	strb	r0, [r1, #20]
    4324:	e8bd8000 	ldmfd	sp!, {pc}
    4328:	e1a0b30b 	lsl	fp, fp, #6
    432c:	e59f1414 	ldr	r1, [pc, #1044]	@ 0x4748
    4330:	e081100b 	add	r1, r1, fp
    4334:	e1a00420 	lsr	r0, r0, #8
    4338:	e21000ff 	ands	r0, r0, #255	@ 0xff
    433c:	e5c10015 	strb	r0, [r1, #21]
    4340:	e8bd8000 	ldmfd	sp!, {pc}
    4344:	e1a0b30b 	lsl	fp, fp, #6
    4348:	e59f13f8 	ldr	r1, [pc, #1016]	@ 0x4748
    434c:	e081100b 	add	r1, r1, fp
    4350:	e1a00420 	lsr	r0, r0, #8
    4354:	e21000ff 	ands	r0, r0, #255	@ 0xff
    4358:	e5c1000a 	strb	r0, [r1, #10]
    435c:	e8bd8000 	ldmfd	sp!, {pc}
    4360:	e1a0b30b 	lsl	fp, fp, #6
    4364:	e59f43dc 	ldr	r4, [pc, #988]	@ 0x4748
    4368:	e084400b 	add	r4, r4, fp
    436c:	e1a00420 	lsr	r0, r0, #8
    4370:	e21000ff 	ands	r0, r0, #255	@ 0xff
    4374:	e92d8000 	stmfd	sp!, {pc}
    4378:	e1a00000 	nop			@ (mov r0, r0)
    437c:	eafff843 	b	0x2490
    4380:	e5c4000b 	strb	r0, [r4, #11]
    4384:	e8bd8000 	ldmfd	sp!, {pc}
    4388:	e1a0b30b 	lsl	fp, fp, #6
    438c:	e59f43b4 	ldr	r4, [pc, #948]	@ 0x4748
    4390:	e084400b 	add	r4, r4, fp
    4394:	e1a01420 	lsr	r1, r0, #8
    4398:	e21110ff 	ands	r1, r1, #255	@ 0xff
    439c:	e201100f 	and	r1, r1, #15
    43a0:	e5d40008 	ldrb	r0, [r4, #8]
    43a4:	e1a00220 	lsr	r0, r0, #4
    43a8:	e92d8000 	stmfd	sp!, {pc}
    43ac:	e1a00000 	nop			@ (mov r0, r0)
    43b0:	eafff831 	b	0x247c
    43b4:	e5c40008 	strb	r0, [r4, #8]
    43b8:	e8bd8000 	ldmfd	sp!, {pc}
    43bc:	e1a0b30b 	lsl	fp, fp, #6
    43c0:	e59f4380 	ldr	r4, [pc, #896]	@ 0x4748
    43c4:	e084400b 	add	r4, r4, fp
    43c8:	e1a00420 	lsr	r0, r0, #8
    43cc:	e21000ff 	ands	r0, r0, #255	@ 0xff
    43d0:	e200000f 	and	r0, r0, #15
    43d4:	e5d41008 	ldrb	r1, [r4, #8]
    43d8:	e201100f 	and	r1, r1, #15
    43dc:	e92d8000 	stmfd	sp!, {pc}
    43e0:	e1a00000 	nop			@ (mov r0, r0)
    43e4:	eafff824 	b	0x247c
    43e8:	e5c40008 	strb	r0, [r4, #8]
    43ec:	e8bd8000 	ldmfd	sp!, {pc}
    43f0:	e1a0b30b 	lsl	fp, fp, #6
    43f4:	e59f134c 	ldr	r1, [pc, #844]	@ 0x4748
    43f8:	e081100b 	add	r1, r1, fp
    43fc:	e1a00420 	lsr	r0, r0, #8
    4400:	e21000ff 	ands	r0, r0, #255	@ 0xff
    4404:	e5c10013 	strb	r0, [r1, #19]
    4408:	e8bd8000 	ldmfd	sp!, {pc}
    440c:	e1a0b30b 	lsl	fp, fp, #6
    4410:	e59f4330 	ldr	r4, [pc, #816]	@ 0x4748
    4414:	e084400b 	add	r4, r4, fp
    4418:	e1a00420 	lsr	r0, r0, #8
    441c:	e21000ff 	ands	r0, r0, #255	@ 0xff
    4420:	0a000002 	beq	0x4430
    4424:	e5d40021 	ldrb	r0, [r4, #33]	@ 0x21
    4428:	e3800080 	orr	r0, r0, #128	@ 0x80
    442c:	ea000001 	b	0x4438
    4430:	e5d40021 	ldrb	r0, [r4, #33]	@ 0x21
    4434:	e200007f 	and	r0, r0, #127	@ 0x7f
    4438:	e5c40021 	strb	r0, [r4, #33]	@ 0x21
    443c:	e3a00000 	mov	r0, #0
    4440:	e5c40024 	strb	r0, [r4, #36]	@ 0x24
    4444:	e3e00000 	mvn	r0, #0
    4448:	e5840028 	str	r0, [r4, #40]	@ 0x28
    444c:	e8bd8000 	ldmfd	sp!, {pc}
    4450:	e92d4f00 	push	{r8, r9, sl, fp, lr}
    4454:	e1a0e00b 	mov	lr, fp
    4458:	e92d8000 	stmfd	sp!, {pc}
    445c:	e1a00000 	nop			@ (mov r0, r0)
    4460:	eafffb59 	b	0x31cc
    4464:	e92d8000 	stmfd	sp!, {pc}
    4468:	e1a00000 	nop			@ (mov r0, r0)
    446c:	ea000001 	b	0x4478
    4470:	e8bd4f00 	pop	{r8, r9, sl, fp, lr}
    4474:	e8bd8000 	ldmfd	sp!, {pc}
    4478:	e5d90010 	ldrb	r0, [r9, #16]
    447c:	e5d91011 	ldrb	r1, [r9, #17]
    4480:	e5db2014 	ldrb	r2, [fp, #20]
    4484:	e92d8000 	stmfd	sp!, {pc}
    4488:	e1a00000 	nop			@ (mov r0, r0)
    448c:	ea000012 	b	0x44dc
    4490:	e5d90012 	ldrb	r0, [r9, #18]
    4494:	e5d91013 	ldrb	r1, [r9, #19]
    4498:	e5db2014 	ldrb	r2, [fp, #20]
    449c:	e92d8000 	stmfd	sp!, {pc}
    44a0:	e1a00000 	nop			@ (mov r0, r0)
    44a4:	ea00000c 	b	0x44dc
    44a8:	e5d90014 	ldrb	r0, [r9, #20]
    44ac:	e5d91015 	ldrb	r1, [r9, #21]
    44b0:	e5db2015 	ldrb	r2, [fp, #21]
    44b4:	e92d8000 	stmfd	sp!, {pc}
    44b8:	e1a00000 	nop			@ (mov r0, r0)
    44bc:	ea000006 	b	0x44dc
    44c0:	e5d90016 	ldrb	r0, [r9, #22]
    44c4:	e5d91017 	ldrb	r1, [r9, #23]
    44c8:	e5db2015 	ldrb	r2, [fp, #21]
    44cc:	e92d8000 	stmfd	sp!, {pc}
    44d0:	e1a00000 	nop			@ (mov r0, r0)
    44d4:	ea000000 	b	0x44dc
    44d8:	e8bd8000 	ldmfd	sp!, {pc}
    44dc:	e210001f 	ands	r0, r0, #31
    44e0:	0a000018 	beq	0x4548
    44e4:	e1b01001 	movs	r1, r1
    44e8:	0a000016 	beq	0x4548
    44ec:	e1a00080 	lsl	r0, r0, #1
    44f0:	e59f7240 	ldr	r7, [pc, #576]	@ 0x4738
    44f4:	e7976000 	ldr	r6, [r7, r0]
    44f8:	e59f0250 	ldr	r0, [pc, #592]	@ 0x4750
    44fc:	e0066000 	and	r6, r6, r0
    4500:	e0877006 	add	r7, r7, r6
    4504:	e1a0f007 	mov	pc, r7
    4508:	00400040 	subeq	r0, r0, r0, asr #32
    450c:	00400040 	subeq	r0, r0, r0, asr #32
    4510:	00400040 	subeq	r0, r0, r0, asr #32
    4514:	00400040 	subeq	r0, r0, r0, asr #32
    4518:	00400040 	subeq	r0, r0, r0, asr #32
    451c:	00400044 	subeq	r0, r0, r4, asr #32
    4520:	00400040 	subeq	r0, r0, r0, asr #32
    4524:	00940040 	addseq	r0, r4, r0, asr #32
    4528:	004000a8 	subeq	r0, r0, r8, lsr #1
    452c:	00400040 	subeq	r0, r0, r0, asr #32
    4530:	00400040 	subeq	r0, r0, r0, asr #32
    4534:	00400040 	subeq	r0, r0, r0, asr #32
    4538:	00400040 	subeq	r0, r0, r0, asr #32
    453c:	00400040 	subeq	r0, r0, r0, asr #32
    4540:	00400040 	subeq	r0, r0, r0, asr #32
    4544:	00400040 	subeq	r0, r0, r0, asr #32
    4548:	e8bd8000 	ldmfd	sp!, {pc}
    454c:	e59c00e0 	ldr	r0, [ip, #224]	@ 0xe0
    4550:	e1b00c20 	lsrs	r0, r0, #24
    4554:	e20000f0 	and	r0, r0, #240	@ 0xf0
    4558:	e35000b0 	cmp	r0, #176	@ 0xb0
    455c:	0a000008 	beq	0x4584
    4560:	e92d8000 	stmfd	sp!, {pc}
    4564:	e1a00000 	nop			@ (mov r0, r0)
    4568:	ea00002b 	b	0x461c
    456c:	e58e002c 	str	r0, [lr, #44]	@ 0x2c
    4570:	e58e1030 	str	r1, [lr, #48]	@ 0x30
    4574:	e58e2034 	str	r2, [lr, #52]	@ 0x34
    4578:	e58e3038 	str	r3, [lr, #56]	@ 0x38
    457c:	e58e403c 	str	r4, [lr, #60]	@ 0x3c
    4580:	eafffff0 	b	0x4548
    4584:	e92d8000 	stmfd	sp!, {pc}
    4588:	e1a00000 	nop			@ (mov r0, r0)
    458c:	ea000022 	b	0x461c
    4590:	e58e3038 	str	r3, [lr, #56]	@ 0x38
    4594:	e58e403c 	str	r4, [lr, #60]	@ 0x3c
    4598:	eaffffea 	b	0x4548
    459c:	e92d8000 	stmfd	sp!, {pc}
    45a0:	e1a00000 	nop			@ (mov r0, r0)
    45a4:	ea000006 	b	0x45c4
    45a8:	e5ce001c 	strb	r0, [lr, #28]
    45ac:	eaffffe5 	b	0x4548
    45b0:	e92d8000 	stmfd	sp!, {pc}
    45b4:	e1a00000 	nop			@ (mov r0, r0)
    45b8:	ea00000d 	b	0x45f4
    45bc:	e5ce001c 	strb	r0, [lr, #28]
    45c0:	eaffffe0 	b	0x4548
    45c4:	e5d84030 	ldrb	r4, [r8, #48]	@ 0x30
    45c8:	e1a002a4 	lsr	r0, r4, #5
    45cc:	e2000007 	and	r0, r0, #7
    45d0:	e3a03007 	mov	r3, #7
    45d4:	e92d8000 	stmfd	sp!, {pc}
    45d8:	e1a00000 	nop			@ (mov r0, r0)
    45dc:	eafff783 	b	0x23f0
    45e0:	e2001007 	and	r1, r0, #7
    45e4:	e1a01281 	lsl	r1, r1, #5
    45e8:	e204001f 	and	r0, r4, #31
    45ec:	e1800001 	orr	r0, r0, r1
    45f0:	e8bd8000 	ldmfd	sp!, {pc}
    45f4:	e5d84030 	ldrb	r4, [r8, #48]	@ 0x30
    45f8:	e2040007 	and	r0, r4, #7
    45fc:	e3a03007 	mov	r3, #7
    4600:	e92d8000 	stmfd	sp!, {pc}
    4604:	e1a00000 	nop			@ (mov r0, r0)
    4608:	eafff778 	b	0x23f0
    460c:	e2001007 	and	r1, r0, #7
    4610:	e20400f8 	and	r0, r4, #248	@ 0xf8
    4614:	e1800001 	orr	r0, r0, r1
    4618:	e8bd8000 	ldmfd	sp!, {pc}
    461c:	e1a06001 	mov	r6, r1
    4620:	e1a05002 	mov	r5, r2
    4624:	e59f4128 	ldr	r4, [pc, #296]	@ 0x4754
    4628:	e5980010 	ldr	r0, [r8, #16]
    462c:	e92d8000 	stmfd	sp!, {pc}
    4630:	e1a00000 	nop			@ (mov r0, r0)
    4634:	ea000020 	b	0x46bc
    4638:	e92d0001 	stmfd	sp!, {r0}
    463c:	e5980012 	ldr	r0, [r8, #18]
    4640:	e92d8000 	stmfd	sp!, {pc}
    4644:	e1a00000 	nop			@ (mov r0, r0)
    4648:	ea00001b 	b	0x46bc
    464c:	e92d0001 	stmfd	sp!, {r0}
    4650:	e5980014 	ldr	r0, [r8, #20]
    4654:	e92d8000 	stmfd	sp!, {pc}
    4658:	e1a00000 	nop			@ (mov r0, r0)
    465c:	ea000016 	b	0x46bc
    4660:	e92d0001 	stmfd	sp!, {r0}
    4664:	e5980016 	ldr	r0, [r8, #22]
    4668:	e92d8000 	stmfd	sp!, {pc}
    466c:	e1a00000 	nop			@ (mov r0, r0)
    4670:	ea000011 	b	0x46bc
    4674:	e92d0001 	stmfd	sp!, {r0}
    4678:	e5980018 	ldr	r0, [r8, #24]
    467c:	e92d8000 	stmfd	sp!, {pc}
    4680:	e1a00000 	nop			@ (mov r0, r0)
    4684:	ea00000c 	b	0x46bc
    4688:	e92d0001 	stmfd	sp!, {r0}
    468c:	e8bd0010 	ldmfd	sp!, {r4}
    4690:	e8bd0008 	ldmfd	sp!, {r3}
    4694:	e8bd0004 	ldmfd	sp!, {r2}
    4698:	e8bd0002 	ldmfd	sp!, {r1}
    469c:	e8bd0001 	ldmfd	sp!, {r0}
    46a0:	e3a05c0e 	mov	r5, #3584	@ 0xe00
    46a4:	e0800005 	add	r0, r0, r5
    46a8:	e0811005 	add	r1, r1, r5
    46ac:	e0822005 	add	r2, r2, r5
    46b0:	e0833005 	add	r3, r3, r5
    46b4:	e0844005 	add	r4, r4, r5
    46b8:	e8bd8000 	ldmfd	sp!, {pc}
    46bc:	e59f1094 	ldr	r1, [pc, #148]	@ 0x4758
    46c0:	e3a02c0e 	mov	r2, #3584	@ 0xe00
    46c4:	e0000001 	and	r0, r0, r1
    46c8:	e1a00100 	lsl	r0, r0, #2
    46cc:	e0500002 	subs	r0, r0, r2
    46d0:	43a00000 	movmi	r0, #0
    46d4:	e1a01006 	mov	r1, r6
    46d8:	e1a02005 	mov	r2, r5
    46dc:	e1a03004 	mov	r3, r4
    46e0:	e92d8000 	stmfd	sp!, {pc}
    46e4:	e1a00000 	nop			@ (mov r0, r0)
    46e8:	eafff740 	b	0x23f0
    46ec:	e8bd8000 	ldmfd	sp!, {pc}
    46f0:	00004e48 	andeq	r4, r0, r8, asr #28
    46f4:	000051f0 	strdeq	r5, [r0], -r0
    46f8:	0000520c 	andeq	r5, r0, ip, lsl #4
    46fc:	00005228 	andeq	r5, r0, r8, lsr #4
    4700:	00005350 	andeq	r5, r0, r0, asr r3
    4704:	0f000007 	svceq	0x00000007
    4708:	00005244 	andeq	r5, r0, r4, asr #4
    470c:	00003f88 	andeq	r3, r0, r8, lsl #31
    4710:	00005260 	andeq	r5, r0, r0, ror #4
    4714:	000050ec 	andeq	r5, r0, ip, ror #1
    4718:	00005288 	andeq	r5, r0, r8, lsl #5
    471c:	00005128 	andeq	r5, r0, r8, lsr #2
    4720:	000052bc 			@ <UNDEFINED> instruction: 0x000052bc
    4724:	0000515c 	andeq	r5, r0, ip, asr r1
    4728:	000052f0 	strdeq	r5, [r0], -r0
    472c:	00005190 	muleq	r0, r0, r1
    4730:	0000530c 	andeq	r5, r0, ip, lsl #6
    4734:	000051c8 	andeq	r5, r0, r8, asr #3
    4738:	00005408 	andeq	r5, r0, r8, lsl #8
	...
    4748:	0000c800 	andeq	ip, r0, r0, lsl #16
    474c:	00000000 	andeq	r0, r0, r0
    4750:	0000ffff 	strdeq	pc, [r0], -pc	@ <UNPREDICTABLE>
    4754:	000011f7 	strdeq	r1, [r0], -r7
    4758:	000007ff 	strdeq	r0, [r0], -pc	@ <UNPREDICTABLE>
    475c:	00540044 	subseq	r0, r4, r4, asr #32
    4760:	00400154 	subeq	r0, r0, r4, asr r1
    4764:	00400040 	subeq	r0, r0, r0, asr #32
    4768:	00400040 	subeq	r0, r0, r0, asr #32
    476c:	02a0026c 	adceq	r0, r0, #108, 4	@ 0xc0000006
    4770:	030c02b8 	movweq	r0, #49848	@ 0xc2b8
    4774:	00400368 	subeq	r0, r0, r8, ror #6
    4778:	00400040 	subeq	r0, r0, r0, asr #32
    477c:	03c00394 	biceq	r0, r0, #148, 6	@ 0x50000002
    4780:	03f003d8 	mvnseq	r0, #216, 6	@ 0x60000003
    4784:	00200020 	eoreq	r0, r0, r0, lsr #32
    4788:	00200020 	eoreq	r0, r0, r0, lsr #32
    478c:	04340408 	ldrteq	r0, [r4], #-1032	@ 0xfffffbf8
    4790:	0464044c 	strbteq	r0, [r4], #-1100	@ 0xfffffbb4
    4794:	00200020 	eoreq	r0, r0, r0, lsr #32
    4798:	00200020 	eoreq	r0, r0, r0, lsr #32
    479c:	eafffc77 	b	0x3980
    47a0:	e92d8000 	stmfd	sp!, {pc}
    47a4:	e1a00000 	nop			@ (mov r0, r0)
    47a8:	ea000194 	b	0x4e00
    47ac:	eafffc73 	b	0x3980
    47b0:	e92d8000 	stmfd	sp!, {pc}
    47b4:	e1a00000 	nop			@ (mov r0, r0)
    47b8:	ea0001bb 	b	0x4eac
    47bc:	e5db0000 	ldrb	r0, [fp]
    47c0:	e3100080 	tst	r0, #128	@ 0x80
    47c4:	1a000038 	bne	0x48ac
    47c8:	e3100040 	tst	r0, #64	@ 0x40
    47cc:	1a000036 	bne	0x48ac
    47d0:	e3a00080 	mov	r0, #128	@ 0x80
    47d4:	e5cb0000 	strb	r0, [fp]
    47d8:	e3a00010 	mov	r0, #16
    47dc:	e5db102b 	ldrb	r1, [fp, #43]	@ 0x2b
    47e0:	e2811000 	add	r1, r1, #0
    47e4:	e5db2018 	ldrb	r2, [fp, #24]
    47e8:	e92d8000 	stmfd	sp!, {pc}
    47ec:	e1a00000 	nop			@ (mov r0, r0)
    47f0:	eafff186 	b	0xe10
    47f4:	0a00002c 	beq	0x48ac
    47f8:	e5cb6002 	strb	r6, [fp, #2]
    47fc:	e587b03c 	str	fp, [r7, #60]	@ 0x3c
    4800:	e1a06386 	lsl	r6, r6, #7
    4804:	e3a0a502 	mov	sl, #8388608	@ 0x800000
    4808:	e08aa006 	add	sl, sl, r6
    480c:	e24a0601 	sub	r0, sl, #1048576	@ 0x100000
    4810:	e58b0004 	str	r0, [fp, #4]
    4814:	e59b900c 	ldr	r9, [fp, #12]
    4818:	e92d8000 	stmfd	sp!, {pc}
    481c:	e1a00000 	nop			@ (mov r0, r0)
    4820:	ea000117 	b	0x4c84
    4824:	e5db0029 	ldrb	r0, [fp, #41]	@ 0x29
    4828:	e2000003 	and	r0, r0, #3
    482c:	e3500001 	cmp	r0, #1
    4830:	0a000004 	beq	0x4848
    4834:	e3a000ff 	mov	r0, #255	@ 0xff
    4838:	e3a01000 	mov	r1, #0
    483c:	e5cb0003 	strb	r0, [fp, #3]
    4840:	e58b1008 	str	r1, [fp, #8]
    4844:	ea000015 	b	0x48a0
    4848:	e3a00010 	mov	r0, #16
    484c:	e5db102b 	ldrb	r1, [fp, #43]	@ 0x2b
    4850:	e2811000 	add	r1, r1, #0
    4854:	e5db2018 	ldrb	r2, [fp, #24]
    4858:	e92d8000 	stmfd	sp!, {pc}
    485c:	e1a00000 	nop			@ (mov r0, r0)
    4860:	eafff16a 	b	0xe10
    4864:	0a000010 	beq	0x48ac
    4868:	e5cb6003 	strb	r6, [fp, #3]
    486c:	e587b03c 	str	fp, [r7, #60]	@ 0x3c
    4870:	e1a06386 	lsl	r6, r6, #7
    4874:	e3a0a502 	mov	sl, #8388608	@ 0x800000
    4878:	e08aa006 	add	sl, sl, r6
    487c:	e24a0601 	sub	r0, sl, #1048576	@ 0x100000
    4880:	e58b0008 	str	r0, [fp, #8]
    4884:	e59b9010 	ldr	r9, [fp, #16]
    4888:	e92d8000 	stmfd	sp!, {pc}
    488c:	e1a00000 	nop			@ (mov r0, r0)
    4890:	ea0000fb 	b	0x4c84
    4894:	e92d8000 	stmfd	sp!, {pc}
    4898:	e1a00000 	nop			@ (mov r0, r0)
    489c:	ea000145 	b	0x4db8
    48a0:	e5da0001 	ldrb	r0, [sl, #1]
    48a4:	e38000c0 	orr	r0, r0, #192	@ 0xc0
    48a8:	e5ca0001 	strb	r0, [sl, #1]
    48ac:	eafffc33 	b	0x3980
    48b0:	e92d8000 	stmfd	sp!, {pc}
    48b4:	e1a00000 	nop			@ (mov r0, r0)
    48b8:	ea00017b 	b	0x4eac
    48bc:	e5dc001d 	ldrb	r0, [ip, #29]
    48c0:	e3100001 	tst	r0, #1
    48c4:	1a000013 	bne	0x4918
    48c8:	e5db0000 	ldrb	r0, [fp]
    48cc:	e3100040 	tst	r0, #64	@ 0x40
    48d0:	1a00000f 	bne	0x4914
    48d4:	e3100080 	tst	r0, #128	@ 0x80
    48d8:	0a00000d 	beq	0x4914
    48dc:	e3a000c0 	mov	r0, #192	@ 0xc0
    48e0:	e5cb0000 	strb	r0, [fp]
    48e4:	e5db0002 	ldrb	r0, [fp, #2]
    48e8:	e92d8000 	stmfd	sp!, {pc}
    48ec:	e1a00000 	nop			@ (mov r0, r0)
    48f0:	ea00001a 	b	0x4960
    48f4:	e5db0003 	ldrb	r0, [fp, #3]
    48f8:	e92d8000 	stmfd	sp!, {pc}
    48fc:	e1a00000 	nop			@ (mov r0, r0)
    4900:	ea000016 	b	0x4960
    4904:	e3a00000 	mov	r0, #0
    4908:	e58b0004 	str	r0, [fp, #4]
    490c:	e58b0008 	str	r0, [fp, #8]
    4910:	e58b0014 	str	r0, [fp, #20]
    4914:	eafffc19 	b	0x3980
    4918:	e5db0000 	ldrb	r0, [fp]
    491c:	e3100080 	tst	r0, #128	@ 0x80
    4920:	0afffffb 	beq	0x4914
    4924:	e3a000c0 	mov	r0, #192	@ 0xc0
    4928:	e5cb0000 	strb	r0, [fp]
    492c:	e5db0002 	ldrb	r0, [fp, #2]
    4930:	e92d8000 	stmfd	sp!, {pc}
    4934:	e1a00000 	nop			@ (mov r0, r0)
    4938:	ea000012 	b	0x4988
    493c:	e5db0003 	ldrb	r0, [fp, #3]
    4940:	e92d8000 	stmfd	sp!, {pc}
    4944:	e1a00000 	nop			@ (mov r0, r0)
    4948:	ea00000e 	b	0x4988
    494c:	e3a00000 	mov	r0, #0
    4950:	e58b0004 	str	r0, [fp, #4]
    4954:	e58b0008 	str	r0, [fp, #8]
    4958:	e58b0014 	str	r0, [fp, #20]
    495c:	eaffffec 	b	0x4914
    4960:	e35000ff 	cmp	r0, #255	@ 0xff
    4964:	0a000006 	beq	0x4984
    4968:	e1a00380 	lsl	r0, r0, #7
    496c:	e3a01502 	mov	r1, #8388608	@ 0x800000
    4970:	e0811000 	add	r1, r1, r0
    4974:	e1a00001 	mov	r0, r1
    4978:	e92d8000 	stmfd	sp!, {pc}
    497c:	e1a00000 	nop			@ (mov r0, r0)
    4980:	eafff55c 	b	0x1ef8
    4984:	e8bd8000 	ldmfd	sp!, {pc}
    4988:	e35000ff 	cmp	r0, #255	@ 0xff
    498c:	0a00000c 	beq	0x49c4
    4990:	e92d0e00 	push	{r9, sl, fp}
    4994:	e1a01000 	mov	r1, r0
    4998:	e1a09000 	mov	r9, r0
    499c:	e1a00300 	lsl	r0, r0, #6
    49a0:	e59fa548 	ldr	sl, [pc, #1352]	@ 0x4ef0
    49a4:	e08aa000 	add	sl, sl, r0
    49a8:	e1a01381 	lsl	r1, r1, #7
    49ac:	e3a0b502 	mov	fp, #8388608	@ 0x800000
    49b0:	e08bb001 	add	fp, fp, r1
    49b4:	e92d8000 	stmfd	sp!, {pc}
    49b8:	e1a00000 	nop			@ (mov r0, r0)
    49bc:	eafff0e4 	b	0xd54
    49c0:	e8bd0e00 	pop	{r9, sl, fp}
    49c4:	e8bd8000 	ldmfd	sp!, {pc}
    49c8:	e92d8000 	stmfd	sp!, {pc}
    49cc:	e1a00000 	nop			@ (mov r0, r0)
    49d0:	ea000088 	b	0x4bf8
    49d4:	e2400040 	sub	r0, r0, #64	@ 0x40
    49d8:	e5cb0040 	strb	r0, [fp, #64]	@ 0x40
    49dc:	e92d8000 	stmfd	sp!, {pc}
    49e0:	e1a00000 	nop			@ (mov r0, r0)
    49e4:	ea00011f 	b	0x4e68
    49e8:	e3a01018 	mov	r1, #24
    49ec:	e92d8000 	stmfd	sp!, {pc}
    49f0:	e1a00000 	nop			@ (mov r0, r0)
    49f4:	ea00002d 	b	0x4ab0
    49f8:	eafffbe0 	b	0x3980
    49fc:	e92d8000 	stmfd	sp!, {pc}
    4a00:	e1a00000 	nop			@ (mov r0, r0)
    4a04:	ea00007b 	b	0x4bf8
    4a08:	e2400040 	sub	r0, r0, #64	@ 0x40
    4a0c:	e5cb0041 	strb	r0, [fp, #65]	@ 0x41
    4a10:	eafffff1 	b	0x49dc
    4a14:	e92d8000 	stmfd	sp!, {pc}
    4a18:	e1a00000 	nop			@ (mov r0, r0)
    4a1c:	ea000075 	b	0x4bf8
    4a20:	e5db103f 	ldrb	r1, [fp, #63]	@ 0x3f
    4a24:	e1b00000 	movs	r0, r0
    4a28:	03811001 	orreq	r1, r1, #1
    4a2c:	120110fe 	andne	r1, r1, #254	@ 0xfe
    4a30:	e5cb103f 	strb	r1, [fp, #63]	@ 0x3f
    4a34:	e92d8000 	stmfd	sp!, {pc}
    4a38:	e1a00000 	nop			@ (mov r0, r0)
    4a3c:	eafff682 	b	0x244c
    4a40:	e1a01000 	mov	r1, r0
    4a44:	e5cb1036 	strb	r1, [fp, #54]	@ 0x36
    4a48:	e1a01421 	lsr	r1, r1, #8
    4a4c:	e5cb1037 	strb	r1, [fp, #55]	@ 0x37
    4a50:	e3a01038 	mov	r1, #56	@ 0x38
    4a54:	e92d8000 	stmfd	sp!, {pc}
    4a58:	e1a00000 	nop			@ (mov r0, r0)
    4a5c:	ea000013 	b	0x4ab0
    4a60:	e5db003e 	ldrb	r0, [fp, #62]	@ 0x3e
    4a64:	ea000004 	b	0x4a7c
    4a68:	e92d8000 	stmfd	sp!, {pc}
    4a6c:	e1a00000 	nop			@ (mov r0, r0)
    4a70:	ea000060 	b	0x4bf8
    4a74:	e200001f 	and	r0, r0, #31
    4a78:	e5cb003e 	strb	r0, [fp, #62]	@ 0x3e
    4a7c:	e5db103f 	ldrb	r1, [fp, #63]	@ 0x3f
    4a80:	e3110001 	tst	r1, #1
    4a84:	13800020 	orrne	r0, r0, #32
    4a88:	e3a01028 	mov	r1, #40	@ 0x28
    4a8c:	e92d8000 	stmfd	sp!, {pc}
    4a90:	e1a00000 	nop			@ (mov r0, r0)
    4a94:	ea000000 	b	0x4a9c
    4a98:	eafffbb8 	b	0x3980
    4a9c:	e1b08008 	movs	r8, r8
    4aa0:	17c80001 	strbne	r0, [r8, r1]
    4aa4:	e1b09009 	movs	r9, r9
    4aa8:	17c90001 	strbne	r0, [r9, r1]
    4aac:	e8bd8000 	ldmfd	sp!, {pc}
    4ab0:	e1b08008 	movs	r8, r8
    4ab4:	17880001 	strne	r0, [r8, r1]
    4ab8:	e1b09009 	movs	r9, r9
    4abc:	17890001 	strne	r0, [r9, r1]
    4ac0:	e8bd8000 	ldmfd	sp!, {pc}
    4ac4:	e92d8000 	stmfd	sp!, {pc}
    4ac8:	e1a00000 	nop			@ (mov r0, r0)
    4acc:	ea000049 	b	0x4bf8
    4ad0:	e5cb0001 	strb	r0, [fp, #1]
    4ad4:	e1b08008 	movs	r8, r8
    4ad8:	0a00000b 	beq	0x4b0c
    4adc:	e5db0051 	ldrb	r0, [fp, #81]	@ 0x51
    4ae0:	e92d8000 	stmfd	sp!, {pc}
    4ae4:	e1a00000 	nop			@ (mov r0, r0)
    4ae8:	ea0000d5 	b	0x4e44
    4aec:	e5c80029 	strb	r0, [r8, #41]	@ 0x29
    4af0:	e1b09009 	movs	r9, r9
    4af4:	0a000004 	beq	0x4b0c
    4af8:	e5db0055 	ldrb	r0, [fp, #85]	@ 0x55
    4afc:	e92d8000 	stmfd	sp!, {pc}
    4b00:	e1a00000 	nop			@ (mov r0, r0)
    4b04:	ea0000ce 	b	0x4e44
    4b08:	e5c90029 	strb	r0, [r9, #41]	@ 0x29
    4b0c:	eafffb9b 	b	0x3980
    4b10:	e92d8000 	stmfd	sp!, {pc}
    4b14:	e1a00000 	nop			@ (mov r0, r0)
    4b18:	ea000036 	b	0x4bf8
    4b1c:	e5cb0051 	strb	r0, [fp, #81]	@ 0x51
    4b20:	e92d8000 	stmfd	sp!, {pc}
    4b24:	e1a00000 	nop			@ (mov r0, r0)
    4b28:	ea0000c5 	b	0x4e44
    4b2c:	e3a0e029 	mov	lr, #41	@ 0x29
    4b30:	e1b08008 	movs	r8, r8
    4b34:	17c8000e 	strbne	r0, [r8, lr]
    4b38:	eafffb90 	b	0x3980
    4b3c:	e92d8000 	stmfd	sp!, {pc}
    4b40:	e1a00000 	nop			@ (mov r0, r0)
    4b44:	ea00002b 	b	0x4bf8
    4b48:	e5cb0052 	strb	r0, [fp, #82]	@ 0x52
    4b4c:	e3a0e024 	mov	lr, #36	@ 0x24
    4b50:	eafffff6 	b	0x4b30
    4b54:	e3a0e053 	mov	lr, #83	@ 0x53
    4b58:	e92d8000 	stmfd	sp!, {pc}
    4b5c:	e1a00000 	nop			@ (mov r0, r0)
    4b60:	ea000031 	b	0x4c2c
    4b64:	e3a0e020 	mov	lr, #32
    4b68:	eafffff0 	b	0x4b30
    4b6c:	e3a0e053 	mov	lr, #83	@ 0x53
    4b70:	e92d8000 	stmfd	sp!, {pc}
    4b74:	e1a00000 	nop			@ (mov r0, r0)
    4b78:	ea000035 	b	0x4c54
    4b7c:	e3a0e020 	mov	lr, #32
    4b80:	eaffffea 	b	0x4b30
    4b84:	e92d8000 	stmfd	sp!, {pc}
    4b88:	e1a00000 	nop			@ (mov r0, r0)
    4b8c:	ea000019 	b	0x4bf8
    4b90:	e5cb0055 	strb	r0, [fp, #85]	@ 0x55
    4b94:	e92d8000 	stmfd	sp!, {pc}
    4b98:	e1a00000 	nop			@ (mov r0, r0)
    4b9c:	ea0000a8 	b	0x4e44
    4ba0:	e3a0e029 	mov	lr, #41	@ 0x29
    4ba4:	e1b09009 	movs	r9, r9
    4ba8:	17c9000e 	strbne	r0, [r9, lr]
    4bac:	eafffb73 	b	0x3980
    4bb0:	e92d8000 	stmfd	sp!, {pc}
    4bb4:	e1a00000 	nop			@ (mov r0, r0)
    4bb8:	ea00000e 	b	0x4bf8
    4bbc:	e5cb0056 	strb	r0, [fp, #86]	@ 0x56
    4bc0:	e3a0e024 	mov	lr, #36	@ 0x24
    4bc4:	eafffff6 	b	0x4ba4
    4bc8:	e3a0e057 	mov	lr, #87	@ 0x57
    4bcc:	e92d8000 	stmfd	sp!, {pc}
    4bd0:	e1a00000 	nop			@ (mov r0, r0)
    4bd4:	ea000014 	b	0x4c2c
    4bd8:	e3a0e020 	mov	lr, #32
    4bdc:	eafffff0 	b	0x4ba4
    4be0:	e3a0e057 	mov	lr, #87	@ 0x57
    4be4:	e92d8000 	stmfd	sp!, {pc}
    4be8:	e1a00000 	nop			@ (mov r0, r0)
    4bec:	ea000018 	b	0x4c54
    4bf0:	e3a0e020 	mov	lr, #32
    4bf4:	eaffffea 	b	0x4ba4
    4bf8:	e1a04000 	mov	r4, r0
    4bfc:	e92d8000 	stmfd	sp!, {pc}
    4c00:	e1a00000 	nop			@ (mov r0, r0)
    4c04:	ea0000a8 	b	0x4eac
    4c08:	e59b8004 	ldr	r8, [fp, #4]
    4c0c:	e1b08008 	movs	r8, r8
    4c10:	12888601 	addne	r8, r8, #1048576	@ 0x100000
    4c14:	e59b9008 	ldr	r9, [fp, #8]
    4c18:	e1b09009 	movs	r9, r9
    4c1c:	12899601 	addne	r9, r9, #1048576	@ 0x100000
    4c20:	e1a00424 	lsr	r0, r4, #8
    4c24:	e21000ff 	ands	r0, r0, #255	@ 0xff
    4c28:	e8bd8000 	ldmfd	sp!, {pc}
    4c2c:	e92d8000 	stmfd	sp!, {pc}
    4c30:	e1a00000 	nop			@ (mov r0, r0)
    4c34:	eaffffef 	b	0x4bf8
    4c38:	e7db100e 	ldrb	r1, [fp, lr]
    4c3c:	e201100f 	and	r1, r1, #15
    4c40:	e92d8000 	stmfd	sp!, {pc}
    4c44:	e1a00000 	nop			@ (mov r0, r0)
    4c48:	eafff60b 	b	0x247c
    4c4c:	e7cb000e 	strb	r0, [fp, lr]
    4c50:	e8bd8000 	ldmfd	sp!, {pc}
    4c54:	e92d8000 	stmfd	sp!, {pc}
    4c58:	e1a00000 	nop			@ (mov r0, r0)
    4c5c:	eaffffe5 	b	0x4bf8
    4c60:	e1a01000 	mov	r1, r0
    4c64:	e7db000e 	ldrb	r0, [fp, lr]
    4c68:	e1a00220 	lsr	r0, r0, #4
    4c6c:	e200000f 	and	r0, r0, #15
    4c70:	e92d8000 	stmfd	sp!, {pc}
    4c74:	e1a00000 	nop			@ (mov r0, r0)
    4c78:	eafff5ff 	b	0x247c
    4c7c:	e7cb000e 	strb	r0, [fp, lr]
    4c80:	e8bd8000 	ldmfd	sp!, {pc}
    4c84:	e59f4268 	ldr	r4, [pc, #616]	@ 0x4ef4
    4c88:	e1a00009 	mov	r0, r9
    4c8c:	e5db1028 	ldrb	r1, [fp, #40]	@ 0x28
    4c90:	e2011003 	and	r1, r1, #3
    4c94:	e1a03001 	mov	r3, r1
    4c98:	e1a01b81 	lsl	r1, r1, #23
    4c9c:	e1800001 	orr	r0, r0, r1
    4ca0:	e3800402 	orr	r0, r0, #33554432	@ 0x2000000
    4ca4:	e1a01820 	lsr	r1, r0, #16
    4ca8:	e0000004 	and	r0, r0, r4
    4cac:	e58a0004 	str	r0, [sl, #4]
    4cb0:	e58a1000 	str	r1, [sl]
    4cb4:	e3a00000 	mov	r0, #0
    4cb8:	e58a0008 	str	r0, [sl, #8]
    4cbc:	e1a00003 	mov	r0, r3
    4cc0:	e92d8000 	stmfd	sp!, {pc}
    4cc4:	e1a00000 	nop			@ (mov r0, r0)
    4cc8:	ea00007e 	b	0x4ec8
    4ccc:	e58a000c 	str	r0, [sl, #12]
    4cd0:	e92d8000 	stmfd	sp!, {pc}
    4cd4:	e1a00000 	nop			@ (mov r0, r0)
    4cd8:	ea000062 	b	0x4e68
    4cdc:	e58a0018 	str	r0, [sl, #24]
    4ce0:	e59b0044 	ldr	r0, [fp, #68]	@ 0x44
    4ce4:	e0000004 	and	r0, r0, r4
    4ce8:	e58a0010 	str	r0, [sl, #16]
    4cec:	e59b0046 	ldr	r0, [fp, #70]	@ 0x46
    4cf0:	e0000004 	and	r0, r0, r4
    4cf4:	e58a0014 	str	r0, [sl, #20]
    4cf8:	e59b003a 	ldr	r0, [fp, #58]	@ 0x3a
    4cfc:	e0000004 	and	r0, r0, r4
    4d00:	e58a0040 	str	r0, [sl, #64]	@ 0x40
    4d04:	e59b003c 	ldr	r0, [fp, #60]	@ 0x3c
    4d08:	e0000004 	and	r0, r0, r4
    4d0c:	e58a0044 	str	r0, [sl, #68]	@ 0x44
    4d10:	e5db003f 	ldrb	r0, [fp, #63]	@ 0x3f
    4d14:	e3100001 	tst	r0, #1
    4d18:	1a000011 	bne	0x4d64
    4d1c:	e59b0030 	ldr	r0, [fp, #48]	@ 0x30
    4d20:	e0000004 	and	r0, r0, r4
    4d24:	e58a002c 	str	r0, [sl, #44]	@ 0x2c
    4d28:	e59b0032 	ldr	r0, [fp, #50]	@ 0x32
    4d2c:	e0000004 	and	r0, r0, r4
    4d30:	e58a0030 	str	r0, [sl, #48]	@ 0x30
    4d34:	e59b0034 	ldr	r0, [fp, #52]	@ 0x34
    4d38:	e0000004 	and	r0, r0, r4
    4d3c:	e58a0034 	str	r0, [sl, #52]	@ 0x34
    4d40:	e59b0036 	ldr	r0, [fp, #54]	@ 0x36
    4d44:	e0000004 	and	r0, r0, r4
    4d48:	e58a0038 	str	r0, [sl, #56]	@ 0x38
    4d4c:	e59b0038 	ldr	r0, [fp, #56]	@ 0x38
    4d50:	e0000004 	and	r0, r0, r4
    4d54:	e58a003c 	str	r0, [sl, #60]	@ 0x3c
    4d58:	e5db003e 	ldrb	r0, [fp, #62]	@ 0x3e
    4d5c:	e5ca0028 	strb	r0, [sl, #40]	@ 0x28
    4d60:	ea000001 	b	0x4d6c
    4d64:	e3a00020 	mov	r0, #32
    4d68:	e5ca0028 	strb	r0, [sl, #40]	@ 0x28
    4d6c:	e5db0050 	ldrb	r0, [fp, #80]	@ 0x50
    4d70:	e5ca0025 	strb	r0, [sl, #37]	@ 0x25
    4d74:	e5db0052 	ldrb	r0, [fp, #82]	@ 0x52
    4d78:	e5ca0024 	strb	r0, [sl, #36]	@ 0x24
    4d7c:	e5db0053 	ldrb	r0, [fp, #83]	@ 0x53
    4d80:	e5ca0020 	strb	r0, [sl, #32]
    4d84:	e5db0051 	ldrb	r0, [fp, #81]	@ 0x51
    4d88:	e92d8000 	stmfd	sp!, {pc}
    4d8c:	e1a00000 	nop			@ (mov r0, r0)
    4d90:	ea00002b 	b	0x4e44
    4d94:	e5ca0029 	strb	r0, [sl, #41]	@ 0x29
    4d98:	e5da0001 	ldrb	r0, [sl, #1]
    4d9c:	e3800040 	orr	r0, r0, #64	@ 0x40
    4da0:	e5ca0001 	strb	r0, [sl, #1]
    4da4:	e1a0000a 	mov	r0, sl
    4da8:	e92d8000 	stmfd	sp!, {pc}
    4dac:	e1a00000 	nop			@ (mov r0, r0)
    4db0:	eafff64a 	b	0x26e0
    4db4:	e8bd8000 	ldmfd	sp!, {pc}
    4db8:	e59b7008 	ldr	r7, [fp, #8]
    4dbc:	e2877601 	add	r7, r7, #1048576	@ 0x100000
    4dc0:	e5db0054 	ldrb	r0, [fp, #84]	@ 0x54
    4dc4:	e5c70025 	strb	r0, [r7, #37]	@ 0x25
    4dc8:	e5db0056 	ldrb	r0, [fp, #86]	@ 0x56
    4dcc:	e5c70024 	strb	r0, [r7, #36]	@ 0x24
    4dd0:	e5db0057 	ldrb	r0, [fp, #87]	@ 0x57
    4dd4:	e5c70020 	strb	r0, [r7, #32]
    4dd8:	e5db0055 	ldrb	r0, [fp, #85]	@ 0x55
    4ddc:	e92d8000 	stmfd	sp!, {pc}
    4de0:	e1a00000 	nop			@ (mov r0, r0)
    4de4:	ea000016 	b	0x4e44
    4de8:	e5c70029 	strb	r0, [r7, #41]	@ 0x29
    4dec:	e1a00007 	mov	r0, r7
    4df0:	e92d8000 	stmfd	sp!, {pc}
    4df4:	e1a00000 	nop			@ (mov r0, r0)
    4df8:	eafff638 	b	0x26e0
    4dfc:	e8bd8000 	ldmfd	sp!, {pc}
    4e00:	e59f70f0 	ldr	r7, [pc, #240]	@ 0x4ef8
    4e04:	e5970060 	ldr	r0, [r7, #96]	@ 0x60
    4e08:	e5971064 	ldr	r1, [r7, #100]	@ 0x64
    4e0c:	e5972068 	ldr	r2, [r7, #104]	@ 0x68
    4e10:	e1a01081 	lsl	r1, r1, #1
    4e14:	e0800001 	add	r0, r0, r1
    4e18:	e0000092 	mul	r0, r2, r0
    4e1c:	e58c008c 	str	r0, [ip, #140]	@ 0x8c
    4e20:	e92d8000 	stmfd	sp!, {pc}
    4e24:	e1a00000 	nop			@ (mov r0, r0)
    4e28:	eaffef0e 	b	0xa68
    4e2c:	e8bd8000 	ldmfd	sp!, {pc}
    4e30:	e3a01060 	mov	r1, #96	@ 0x60
    4e34:	e0000091 	mul	r0, r1, r0
    4e38:	e59f10bc 	ldr	r1, [pc, #188]	@ 0x4efc
    4e3c:	e0800001 	add	r0, r0, r1
    4e40:	e8bd8000 	ldmfd	sp!, {pc}
    4e44:	e5db1001 	ldrb	r1, [fp, #1]
    4e48:	e3a0207f 	mov	r2, #127	@ 0x7f
    4e4c:	e92d8000 	stmfd	sp!, {pc}
    4e50:	e1a00000 	nop			@ (mov r0, r0)
    4e54:	eafff5da 	b	0x25c4
    4e58:	e92d8000 	stmfd	sp!, {pc}
    4e5c:	e1a00000 	nop			@ (mov r0, r0)
    4e60:	eafff581 	b	0x246c
    4e64:	e8bd8000 	ldmfd	sp!, {pc}
    4e68:	e5db0040 	ldrb	r0, [fp, #64]	@ 0x40
    4e6c:	e1a00c00 	lsl	r0, r0, #24
    4e70:	e1a00840 	asr	r0, r0, #16
    4e74:	e5db1041 	ldrb	r1, [fp, #65]	@ 0x41
    4e78:	e1a01c01 	lsl	r1, r1, #24
    4e7c:	e1a01b41 	asr	r1, r1, #22
    4e80:	e0800001 	add	r0, r0, r1
    4e84:	e92d8000 	stmfd	sp!, {pc}
    4e88:	e1a00000 	nop			@ (mov r0, r0)
    4e8c:	eafff5ac 	b	0x2544
    4e90:	e59b1042 	ldr	r1, [fp, #66]	@ 0x42
    4e94:	e59f2058 	ldr	r2, [pc, #88]	@ 0x4ef4
    4e98:	e0011002 	and	r1, r1, r2
    4e9c:	e92d8000 	stmfd	sp!, {pc}
    4ea0:	e1a00000 	nop			@ (mov r0, r0)
    4ea4:	eafff5c0 	b	0x25ac
    4ea8:	e8bd8000 	ldmfd	sp!, {pc}
    4eac:	e1a00a20 	lsr	r0, r0, #20
    4eb0:	e2000007 	and	r0, r0, #7
    4eb4:	e92d8000 	stmfd	sp!, {pc}
    4eb8:	e1a00000 	nop			@ (mov r0, r0)
    4ebc:	eaffffdb 	b	0x4e30
    4ec0:	e1a0b000 	mov	fp, r0
    4ec4:	e8bd8000 	ldmfd	sp!, {pc}
    4ec8:	e59f1028 	ldr	r1, [pc, #40]	@ 0x4ef8
    4ecc:	e5911068 	ldr	r1, [r1, #104]	@ 0x68
    4ed0:	e2411040 	sub	r1, r1, #64	@ 0x40
    4ed4:	e3500001 	cmp	r0, #1
    4ed8:	0a000002 	beq	0x4ee8
    4edc:	e3500000 	cmp	r0, #0
    4ee0:	01a010a1 	lsreq	r1, r1, #1
    4ee4:	11a01081 	lslne	r1, r1, #1
    4ee8:	e1a00001 	mov	r0, r1
    4eec:	e8bd8000 	ldmfd	sp!, {pc}
    4ef0:	0000d800 	andeq	sp, r0, r0, lsl #16
    4ef4:	0000ffff 	strdeq	pc, [r0], -pc	@ <UNPREDICTABLE>
    4ef8:	00000040 	andeq	r0, r0, r0, asr #32
    4efc:	00000100 	andeq	r0, r0, r0, lsl #2
    4f00:	003c0034 	eorseq	r0, ip, r4, lsr r0
    4f04:	004c0044 	subeq	r0, ip, r4, asr #32
    4f08:	00300030 	eorseq	r0, r0, r0, lsr r0
    4f0c:	00300030 	eorseq	r0, r0, r0, lsr r0
    4f10:	00300030 	eorseq	r0, r0, r0, lsr r0
    4f14:	00300030 	eorseq	r0, r0, r0, lsr r0
    4f18:	00300030 	eorseq	r0, r0, r0, lsr r0
    4f1c:	00300030 	eorseq	r0, r0, r0, lsr r0
    4f20:	00b8009c 	umlalseq	r0, r8, ip, r0
    4f24:	001000e0 	andseq	r0, r0, r0, ror #1
    4f28:	00100010 	andseq	r0, r0, r0, lsl r0
    4f2c:	01080010 	tsteq	r8, r0, lsl r0
    4f30:	eafffa92 	b	0x3980
    4f34:	e3a01010 	mov	r1, #16
    4f38:	ea000005 	b	0x4f54
    4f3c:	e3a01011 	mov	r1, #17
    4f40:	ea000003 	b	0x4f54
    4f44:	e3a01010 	mov	r1, #16
    4f48:	ea00000b 	b	0x4f7c
    4f4c:	e3a01011 	mov	r1, #17
    4f50:	ea000009 	b	0x4f7c
    4f54:	e1a00420 	lsr	r0, r0, #8
    4f58:	e21000ff 	ands	r0, r0, #255	@ 0xff
    4f5c:	e200000f 	and	r0, r0, #15
    4f60:	e92d8000 	stmfd	sp!, {pc}
    4f64:	e1a00000 	nop			@ (mov r0, r0)
    4f68:	ea00000a 	b	0x4f98
    4f6c:	e92d8000 	stmfd	sp!, {pc}
    4f70:	e1a00000 	nop			@ (mov r0, r0)
    4f74:	ea0000d4 	b	0x52cc
    4f78:	eafffa80 	b	0x3980
    4f7c:	e1a00420 	lsr	r0, r0, #8
    4f80:	e21000ff 	ands	r0, r0, #255	@ 0xff
    4f84:	e200007f 	and	r0, r0, #127	@ 0x7f
    4f88:	e92d8000 	stmfd	sp!, {pc}
    4f8c:	e1a00000 	nop			@ (mov r0, r0)
    4f90:	ea0000d2 	b	0x52e0
    4f94:	eafffa79 	b	0x3980
    4f98:	e5dc201f 	ldrb	r2, [ip, #31]
    4f9c:	e3520080 	cmp	r2, #128	@ 0x80
    4fa0:	1a000004 	bne	0x4fb8
    4fa4:	e5dc201e 	ldrb	r2, [ip, #30]
    4fa8:	e352007f 	cmp	r2, #127	@ 0x7f
    4fac:	0a000001 	beq	0x4fb8
    4fb0:	e2500002 	subs	r0, r0, #2
    4fb4:	43a00000 	movmi	r0, #0
    4fb8:	e8bd8000 	ldmfd	sp!, {pc}
    4fbc:	e1a01420 	lsr	r1, r0, #8
    4fc0:	e21110ff 	ands	r1, r1, #255	@ 0xff
    4fc4:	e5dc0018 	ldrb	r0, [ip, #24]
    4fc8:	e92d8000 	stmfd	sp!, {pc}
    4fcc:	e1a00000 	nop			@ (mov r0, r0)
    4fd0:	ea00002c 	b	0x5088
    4fd4:	eafffa69 	b	0x3980
    4fd8:	e1a01820 	lsr	r1, r0, #16
    4fdc:	e21110ff 	ands	r1, r1, #255	@ 0xff
    4fe0:	e1a00420 	lsr	r0, r0, #8
    4fe4:	e21000ff 	ands	r0, r0, #255	@ 0xff
    4fe8:	e201100f 	and	r1, r1, #15
    4fec:	e200000f 	and	r0, r0, #15
    4ff0:	e92d8000 	stmfd	sp!, {pc}
    4ff4:	e1a00000 	nop			@ (mov r0, r0)
    4ff8:	ea0000b3 	b	0x52cc
    4ffc:	eafffa5f 	b	0x3980
    5000:	e1a01820 	lsr	r1, r0, #16
    5004:	e21110ff 	ands	r1, r1, #255	@ 0xff
    5008:	e1a00420 	lsr	r0, r0, #8
    500c:	e21000ff 	ands	r0, r0, #255	@ 0xff
    5010:	e201100f 	and	r1, r1, #15
    5014:	e200007f 	and	r0, r0, #127	@ 0x7f
    5018:	e92d8000 	stmfd	sp!, {pc}
    501c:	e1a00000 	nop			@ (mov r0, r0)
    5020:	ea0000ae 	b	0x52e0
    5024:	eafffa55 	b	0x3980
    5028:	e1a01420 	lsr	r1, r0, #8
    502c:	e21110ff 	ands	r1, r1, #255	@ 0xff
    5030:	e5cc1018 	strb	r1, [ip, #24]
    5034:	eafffa51 	b	0x3980
    5038:	e59c0084 	ldr	r0, [ip, #132]	@ 0x84
    503c:	e59c1090 	ldr	r1, [ip, #144]	@ 0x90
    5040:	e0400001 	sub	r0, r0, r1
    5044:	e59f2548 	ldr	r2, [pc, #1352]	@ 0x5594
    5048:	e92d8000 	stmfd	sp!, {pc}
    504c:	e1a00000 	nop			@ (mov r0, r0)
    5050:	eafff2f3 	b	0x1c24
    5054:	e8bd8000 	ldmfd	sp!, {pc}
    5058:	e59f3538 	ldr	r3, [pc, #1336]	@ 0x5598
    505c:	e5d30011 	ldrb	r0, [r3, #17]
    5060:	e3100002 	tst	r0, #2
    5064:	03a00602 	moveq	r0, #2097152	@ 0x200000
    5068:	13a00502 	movne	r0, #8388608	@ 0x800000
    506c:	e3a01802 	mov	r1, #131072	@ 0x20000
    5070:	e0400001 	sub	r0, r0, r1
    5074:	e59f2518 	ldr	r2, [pc, #1304]	@ 0x5594
    5078:	e92d8000 	stmfd	sp!, {pc}
    507c:	e1a00000 	nop			@ (mov r0, r0)
    5080:	eafff2e7 	b	0x1c24
    5084:	e8bd8000 	ldmfd	sp!, {pc}
    5088:	e92d00f0 	push	{r4, r5, r6, r7}
    508c:	e35100ff 	cmp	r1, #255	@ 0xff
    5090:	0a000036 	beq	0x5170
    5094:	e351007f 	cmp	r1, #127	@ 0x7f
    5098:	0a000036 	beq	0x5178
    509c:	e5dc2018 	ldrb	r2, [ip, #24]
    50a0:	e5dc3019 	ldrb	r3, [ip, #25]
    50a4:	e1500002 	cmp	r0, r2
    50a8:	1a000001 	bne	0x50b4
    50ac:	e1510003 	cmp	r1, r3
    50b0:	0a00002e 	beq	0x5170
    50b4:	e1a07000 	mov	r7, r0
    50b8:	e1a06001 	mov	r6, r1
    50bc:	e3a01012 	mov	r1, #18
    50c0:	e92d8000 	stmfd	sp!, {pc}
    50c4:	e1a00000 	nop			@ (mov r0, r0)
    50c8:	eafff456 	b	0x2228
    50cc:	0a000027 	beq	0x5170
    50d0:	e1a05001 	mov	r5, r1
    50d4:	e4950004 	ldr	r0, [r5], #4
    50d8:	e1560000 	cmp	r6, r0
    50dc:	8a000023 	bhi	0x5170
    50e0:	e59f04b4 	ldr	r0, [pc, #1204]	@ 0x559c
    50e4:	e0000096 	mul	r0, r6, r0
    50e8:	e0855000 	add	r5, r5, r0
    50ec:	e3a00000 	mov	r0, #0
    50f0:	e3a01020 	mov	r1, #32
    50f4:	e92d8000 	stmfd	sp!, {pc}
    50f8:	e1a00000 	nop			@ (mov r0, r0)
    50fc:	eafff3a5 	b	0x1f98
    5100:	e92d8000 	stmfd	sp!, {pc}
    5104:	e1a00000 	nop			@ (mov r0, r0)
    5108:	ea00004b 	b	0x523c
    510c:	e92d8000 	stmfd	sp!, {pc}
    5110:	e1a00000 	nop			@ (mov r0, r0)
    5114:	eaffffc7 	b	0x5038
    5118:	e2850024 	add	r0, r5, #36	@ 0x24
    511c:	e92d8000 	stmfd	sp!, {pc}
    5120:	e1a00000 	nop			@ (mov r0, r0)
    5124:	ea000062 	b	0x52b4
    5128:	e1a00005 	mov	r0, r5
    512c:	e92d8000 	stmfd	sp!, {pc}
    5130:	e1a00000 	nop			@ (mov r0, r0)
    5134:	ea000072 	b	0x5304
    5138:	e5cc7018 	strb	r7, [ip, #24]
    513c:	e5cc6019 	strb	r6, [ip, #25]
    5140:	e1a00005 	mov	r0, r5
    5144:	e59f1454 	ldr	r1, [pc, #1108]	@ 0x55a0
    5148:	e3a02020 	mov	r2, #32
    514c:	e92d8000 	stmfd	sp!, {pc}
    5150:	e1a00000 	nop			@ (mov r0, r0)
    5154:	eafff2a6 	b	0x1bf4
    5158:	e5dc001f 	ldrb	r0, [ip, #31]
    515c:	e3500080 	cmp	r0, #128	@ 0x80
    5160:	1a000002 	bne	0x5170
    5164:	e92d8000 	stmfd	sp!, {pc}
    5168:	e1a00000 	nop			@ (mov r0, r0)
    516c:	ea00000a 	b	0x519c
    5170:	e8bd00f0 	pop	{r4, r5, r6, r7}
    5174:	e8bd8000 	ldmfd	sp!, {pc}
    5178:	e92d8000 	stmfd	sp!, {pc}
    517c:	e1a00000 	nop			@ (mov r0, r0)
    5180:	ea00002d 	b	0x523c
    5184:	eafffff9 	b	0x5170
    5188:	e59f0410 	ldr	r0, [pc, #1040]	@ 0x55a0
    518c:	e92d8000 	stmfd	sp!, {pc}
    5190:	e1a00000 	nop			@ (mov r0, r0)
    5194:	ea00005a 	b	0x5304
    5198:	e8bd8000 	ldmfd	sp!, {pc}
    519c:	e59f03fc 	ldr	r0, [pc, #1020]	@ 0x55a0
    51a0:	e59f13fc 	ldr	r1, [pc, #1020]	@ 0x55a4
    51a4:	e3a02020 	mov	r2, #32
    51a8:	e92d8000 	stmfd	sp!, {pc}
    51ac:	e1a00000 	nop			@ (mov r0, r0)
    51b0:	eafff28f 	b	0x1bf4
    51b4:	e92d8000 	stmfd	sp!, {pc}
    51b8:	e1a00000 	nop			@ (mov r0, r0)
    51bc:	ea000004 	b	0x51d4
    51c0:	e59f03dc 	ldr	r0, [pc, #988]	@ 0x55a4
    51c4:	e92d8000 	stmfd	sp!, {pc}
    51c8:	e1a00000 	nop			@ (mov r0, r0)
    51cc:	ea00004c 	b	0x5304
    51d0:	e8bd8000 	ldmfd	sp!, {pc}
    51d4:	e92d0030 	push	{r4, r5}
    51d8:	e59f43c4 	ldr	r4, [pc, #964]	@ 0x55a4
    51dc:	e3a05010 	mov	r5, #16
    51e0:	e4d41001 	ldrb	r1, [r4], #1
    51e4:	e5d40000 	ldrb	r0, [r4]
    51e8:	e92d8000 	stmfd	sp!, {pc}
    51ec:	e1a00000 	nop			@ (mov r0, r0)
    51f0:	eafff547 	b	0x2714
    51f4:	e4c40001 	strb	r0, [r4], #1
    51f8:	e2555001 	subs	r5, r5, #1
    51fc:	1afffff7 	bne	0x51e0
    5200:	e8bd0030 	pop	{r4, r5}
    5204:	e8bd8000 	ldmfd	sp!, {pc}
    5208:	e59f0398 	ldr	r0, [pc, #920]	@ 0x55a8
    520c:	e92d8000 	stmfd	sp!, {pc}
    5210:	e1a00000 	nop			@ (mov r0, r0)
    5214:	ea00003a 	b	0x5304
    5218:	e8bd8000 	ldmfd	sp!, {pc}
    521c:	00100010 	andseq	r0, r0, r0, lsl r0
    5220:	00100010 	andseq	r0, r0, r0, lsl r0
    5224:	00100010 	andseq	r0, r0, r0, lsl r0
    5228:	00100010 	andseq	r0, r0, r0, lsl r0
    522c:	00100010 	andseq	r0, r0, r0, lsl r0
    5230:	00100010 	andseq	r0, r0, r0, lsl r0
    5234:	00100010 	andseq	r0, r0, r0, lsl r0
    5238:	00100010 	andseq	r0, r0, r0, lsl r0
    523c:	e92d8000 	stmfd	sp!, {pc}
    5240:	e1a00000 	nop			@ (mov r0, r0)
    5244:	eaffffef 	b	0x5208
    5248:	e59f035c 	ldr	r0, [pc, #860]	@ 0x55ac
    524c:	e3a01b03 	mov	r1, #3072	@ 0xc00
    5250:	e3a02000 	mov	r2, #0
    5254:	e92d8000 	stmfd	sp!, {pc}
    5258:	e1a00000 	nop			@ (mov r0, r0)
    525c:	eafff270 	b	0x1c24
    5260:	e59f0348 	ldr	r0, [pc, #840]	@ 0x55b0
    5264:	e59f1348 	ldr	r1, [pc, #840]	@ 0x55b4
    5268:	e3a02000 	mov	r2, #0
    526c:	e92d8000 	stmfd	sp!, {pc}
    5270:	e1a00000 	nop			@ (mov r0, r0)
    5274:	eafff26a 	b	0x1c24
    5278:	e59f0320 	ldr	r0, [pc, #800]	@ 0x55a0
    527c:	e3a01020 	mov	r1, #32
    5280:	e3a02000 	mov	r2, #0
    5284:	e92d8000 	stmfd	sp!, {pc}
    5288:	e1a00000 	nop			@ (mov r0, r0)
    528c:	eafff264 	b	0x1c24
    5290:	e59f030c 	ldr	r0, [pc, #780]	@ 0x55a4
    5294:	e3a01020 	mov	r1, #32
    5298:	e3a02000 	mov	r2, #0
    529c:	e92d8000 	stmfd	sp!, {pc}
    52a0:	e1a00000 	nop			@ (mov r0, r0)
    52a4:	eafff25e 	b	0x1c24
    52a8:	e3a000ff 	mov	r0, #255	@ 0xff
    52ac:	e5cc0019 	strb	r0, [ip, #25]
    52b0:	e8bd8000 	ldmfd	sp!, {pc}
    52b4:	e59f12f0 	ldr	r1, [pc, #752]	@ 0x55ac
    52b8:	e3a02b03 	mov	r2, #3072	@ 0xc00
    52bc:	e92d8000 	stmfd	sp!, {pc}
    52c0:	e1a00000 	nop			@ (mov r0, r0)
    52c4:	eafff24a 	b	0x1bf4
    52c8:	e8bd8000 	ldmfd	sp!, {pc}
    52cc:	e59f22e4 	ldr	r2, [pc, #740]	@ 0x55b8
    52d0:	e1a01101 	lsl	r1, r1, #2
    52d4:	e2811001 	add	r1, r1, #1
    52d8:	e7c20001 	strb	r0, [r2, r1]
    52dc:	e8bd8000 	ldmfd	sp!, {pc}
    52e0:	e92d0002 	stmfd	sp!, {r1}
    52e4:	e92d8000 	stmfd	sp!, {pc}
    52e8:	e1a00000 	nop			@ (mov r0, r0)
    52ec:	eafff467 	b	0x2490
    52f0:	e8bd0002 	ldmfd	sp!, {r1}
    52f4:	e59f22bc 	ldr	r2, [pc, #700]	@ 0x55b8
    52f8:	e1a01101 	lsl	r1, r1, #2
    52fc:	e7c20001 	strb	r0, [r2, r1]
    5300:	e8bd8000 	ldmfd	sp!, {pc}
    5304:	e92d0010 	stmfd	sp!, {r4}
    5308:	e59f12a8 	ldr	r1, [pc, #680]	@ 0x55b8
    530c:	e3a02020 	mov	r2, #32
    5310:	e59f32a4 	ldr	r3, [pc, #676]	@ 0x55bc
    5314:	e4904002 	ldr	r4, [r0], #2
    5318:	e0044003 	and	r4, r4, r3
    531c:	e4814004 	str	r4, [r1], #4
    5320:	e2522002 	subs	r2, r2, #2
    5324:	1afffffa 	bne	0x5314
    5328:	e8bd0010 	ldmfd	sp!, {r4}
    532c:	e8bd8000 	ldmfd	sp!, {pc}
    5330:	e1500001 	cmp	r0, r1
    5334:	3a000050 	bcc	0x547c
    5338:	ea000009 	b	0x5364
    533c:	e4903004 	ldr	r3, [r0], #4
    5340:	e4813004 	str	r3, [r1], #4
    5344:	e2522004 	subs	r2, r2, #4
    5348:	1afffffb 	bne	0x533c
    534c:	e8bd8000 	ldmfd	sp!, {pc}
    5350:	e4103004 	ldr	r3, [r0], #-4
    5354:	e4013004 	str	r3, [r1], #-4
    5358:	e2522004 	subs	r2, r2, #4
    535c:	1afffffb 	bne	0x5350
    5360:	e8bd8000 	ldmfd	sp!, {pc}
    5364:	e1b02002 	movs	r2, r2
    5368:	0afffffc 	beq	0x5360
    536c:	e3520080 	cmp	r2, #128	@ 0x80
    5370:	3afffff1 	bcc	0x533c
    5374:	e4903004 	ldr	r3, [r0], #4
    5378:	e4813004 	str	r3, [r1], #4
    537c:	e4903004 	ldr	r3, [r0], #4
    5380:	e4813004 	str	r3, [r1], #4
    5384:	e4903004 	ldr	r3, [r0], #4
    5388:	e4813004 	str	r3, [r1], #4
    538c:	e4903004 	ldr	r3, [r0], #4
    5390:	e4813004 	str	r3, [r1], #4
    5394:	e4903004 	ldr	r3, [r0], #4
    5398:	e4813004 	str	r3, [r1], #4
    539c:	e4903004 	ldr	r3, [r0], #4
    53a0:	e4813004 	str	r3, [r1], #4
    53a4:	e4903004 	ldr	r3, [r0], #4
    53a8:	e4813004 	str	r3, [r1], #4
    53ac:	e4903004 	ldr	r3, [r0], #4
    53b0:	e4813004 	str	r3, [r1], #4
    53b4:	e4903004 	ldr	r3, [r0], #4
    53b8:	e4813004 	str	r3, [r1], #4
    53bc:	e4903004 	ldr	r3, [r0], #4
    53c0:	e4813004 	str	r3, [r1], #4
    53c4:	e4903004 	ldr	r3, [r0], #4
    53c8:	e4813004 	str	r3, [r1], #4
    53cc:	e4903004 	ldr	r3, [r0], #4
    53d0:	e4813004 	str	r3, [r1], #4
    53d4:	e4903004 	ldr	r3, [r0], #4
    53d8:	e4813004 	str	r3, [r1], #4
    53dc:	e4903004 	ldr	r3, [r0], #4
    53e0:	e4813004 	str	r3, [r1], #4
    53e4:	e4903004 	ldr	r3, [r0], #4
    53e8:	e4813004 	str	r3, [r1], #4
    53ec:	e4903004 	ldr	r3, [r0], #4
    53f0:	e4813004 	str	r3, [r1], #4
    53f4:	e4903004 	ldr	r3, [r0], #4
    53f8:	e4813004 	str	r3, [r1], #4
    53fc:	e4903004 	ldr	r3, [r0], #4
    5400:	e4813004 	str	r3, [r1], #4
    5404:	e4903004 	ldr	r3, [r0], #4
    5408:	e4813004 	str	r3, [r1], #4
    540c:	e4903004 	ldr	r3, [r0], #4
    5410:	e4813004 	str	r3, [r1], #4
    5414:	e4903004 	ldr	r3, [r0], #4
    5418:	e4813004 	str	r3, [r1], #4
    541c:	e4903004 	ldr	r3, [r0], #4
    5420:	e4813004 	str	r3, [r1], #4
    5424:	e4903004 	ldr	r3, [r0], #4
    5428:	e4813004 	str	r3, [r1], #4
    542c:	e4903004 	ldr	r3, [r0], #4
    5430:	e4813004 	str	r3, [r1], #4
    5434:	e4903004 	ldr	r3, [r0], #4
    5438:	e4813004 	str	r3, [r1], #4
    543c:	e4903004 	ldr	r3, [r0], #4
    5440:	e4813004 	str	r3, [r1], #4
    5444:	e4903004 	ldr	r3, [r0], #4
    5448:	e4813004 	str	r3, [r1], #4
    544c:	e4903004 	ldr	r3, [r0], #4
    5450:	e4813004 	str	r3, [r1], #4
    5454:	e4903004 	ldr	r3, [r0], #4
    5458:	e4813004 	str	r3, [r1], #4
    545c:	e4903004 	ldr	r3, [r0], #4
    5460:	e4813004 	str	r3, [r1], #4
    5464:	e4903004 	ldr	r3, [r0], #4
    5468:	e4813004 	str	r3, [r1], #4
    546c:	e4903004 	ldr	r3, [r0], #4
    5470:	e4813004 	str	r3, [r1], #4
    5474:	e2422080 	sub	r2, r2, #128	@ 0x80
    5478:	eaffffb9 	b	0x5364
    547c:	e1b02002 	movs	r2, r2
    5480:	0affffb6 	beq	0x5360
    5484:	e3520080 	cmp	r2, #128	@ 0x80
    5488:	3affffb0 	bcc	0x5350
    548c:	e4103004 	ldr	r3, [r0], #-4
    5490:	e4013004 	str	r3, [r1], #-4
    5494:	e4103004 	ldr	r3, [r0], #-4
    5498:	e4013004 	str	r3, [r1], #-4
    549c:	e4103004 	ldr	r3, [r0], #-4
    54a0:	e4013004 	str	r3, [r1], #-4
    54a4:	e4103004 	ldr	r3, [r0], #-4
    54a8:	e4013004 	str	r3, [r1], #-4
    54ac:	e4103004 	ldr	r3, [r0], #-4
    54b0:	e4013004 	str	r3, [r1], #-4
    54b4:	e4103004 	ldr	r3, [r0], #-4
    54b8:	e4013004 	str	r3, [r1], #-4
    54bc:	e4103004 	ldr	r3, [r0], #-4
    54c0:	e4013004 	str	r3, [r1], #-4
    54c4:	e4103004 	ldr	r3, [r0], #-4
    54c8:	e4013004 	str	r3, [r1], #-4
    54cc:	e4103004 	ldr	r3, [r0], #-4
    54d0:	e4013004 	str	r3, [r1], #-4
    54d4:	e4103004 	ldr	r3, [r0], #-4
    54d8:	e4013004 	str	r3, [r1], #-4
    54dc:	e4103004 	ldr	r3, [r0], #-4
    54e0:	e4013004 	str	r3, [r1], #-4
    54e4:	e4103004 	ldr	r3, [r0], #-4
    54e8:	e4013004 	str	r3, [r1], #-4
    54ec:	e4103004 	ldr	r3, [r0], #-4
    54f0:	e4013004 	str	r3, [r1], #-4
    54f4:	e4103004 	ldr	r3, [r0], #-4
    54f8:	e4013004 	str	r3, [r1], #-4
    54fc:	e4103004 	ldr	r3, [r0], #-4
    5500:	e4013004 	str	r3, [r1], #-4
    5504:	e4103004 	ldr	r3, [r0], #-4
    5508:	e4013004 	str	r3, [r1], #-4
    550c:	e4103004 	ldr	r3, [r0], #-4
    5510:	e4013004 	str	r3, [r1], #-4
    5514:	e4103004 	ldr	r3, [r0], #-4
    5518:	e4013004 	str	r3, [r1], #-4
    551c:	e4103004 	ldr	r3, [r0], #-4
    5520:	e4013004 	str	r3, [r1], #-4
    5524:	e4103004 	ldr	r3, [r0], #-4
    5528:	e4013004 	str	r3, [r1], #-4
    552c:	e4103004 	ldr	r3, [r0], #-4
    5530:	e4013004 	str	r3, [r1], #-4
    5534:	e4103004 	ldr	r3, [r0], #-4
    5538:	e4013004 	str	r3, [r1], #-4
    553c:	e4103004 	ldr	r3, [r0], #-4
    5540:	e4013004 	str	r3, [r1], #-4
    5544:	e4103004 	ldr	r3, [r0], #-4
    5548:	e4013004 	str	r3, [r1], #-4
    554c:	e4103004 	ldr	r3, [r0], #-4
    5550:	e4013004 	str	r3, [r1], #-4
    5554:	e4103004 	ldr	r3, [r0], #-4
    5558:	e4013004 	str	r3, [r1], #-4
    555c:	e4103004 	ldr	r3, [r0], #-4
    5560:	e4013004 	str	r3, [r1], #-4
    5564:	e4103004 	ldr	r3, [r0], #-4
    5568:	e4013004 	str	r3, [r1], #-4
    556c:	e4103004 	ldr	r3, [r0], #-4
    5570:	e4013004 	str	r3, [r1], #-4
    5574:	e4103004 	ldr	r3, [r0], #-4
    5578:	e4013004 	str	r3, [r1], #-4
    557c:	e4103004 	ldr	r3, [r0], #-4
    5580:	e4013004 	str	r3, [r1], #-4
    5584:	e4103004 	ldr	r3, [r0], #-4
    5588:	e4013004 	str	r3, [r1], #-4
    558c:	e2422080 	sub	r2, r2, #128	@ 0x80
    5590:	eaffffb9 	b	0x547c
    5594:	60006000 	andvs	r6, r0, r0
    5598:	00000040 	andeq	r0, r0, r0, asr #32
    559c:	00000c24 	andeq	r0, r0, r4, lsr #24
    55a0:	0000f450 	andeq	pc, r0, r0, asr r4	@ <UNPREDICTABLE>
    55a4:	0000f474 	andeq	pc, r0, r4, ror r4	@ <UNPREDICTABLE>
    55a8:	0000611c 	andeq	r6, r0, ip, lsl r1
    55ac:	00803000 	addeq	r3, r0, r0
    55b0:	00804000 	addeq	r4, r0, r0
    55b4:	000005c8 	andeq	r0, r0, r8, asr #11
    55b8:	00802000 	addeq	r2, r0, r0
    55bc:	0000ffff 	strdeq	pc, [r0], -pc	@ <UNPREDICTABLE>
    55c0:	014c0024 	cmpeq	ip, r4, lsr #32
    55c4:	015c0154 	cmpeq	ip, r4, asr r1
    55c8:	016c0164 	cmneq	ip, r4, ror #2
    55cc:	01bc0174 			@ <UNDEFINED> instruction: 0x01bc0174
    55d0:	0174016c 	cmneq	r4, ip, ror #2
    55d4:	00100010 	andseq	r0, r0, r0, lsl r0
    55d8:	00100010 	andseq	r0, r0, r0, lsl r0
    55dc:	00100010 	andseq	r0, r0, r0, lsl r0
    55e0:	eafff8e6 	b	0x3980
    55e4:	e92d8000 	stmfd	sp!, {pc}
    55e8:	e1a00000 	nop			@ (mov r0, r0)
    55ec:	ea000279 	b	0x5fd8
    55f0:	e3110080 	tst	r1, #128	@ 0x80
    55f4:	1a000002 	bne	0x5604
    55f8:	e92d8000 	stmfd	sp!, {pc}
    55fc:	e1a00000 	nop			@ (mov r0, r0)
    5600:	ea000000 	b	0x5608
    5604:	eafff8dd 	b	0x3980
    5608:	e1a07000 	mov	r7, r0
    560c:	e5dc001c 	ldrb	r0, [ip, #28]
    5610:	e3a01011 	mov	r1, #17
    5614:	e92d8000 	stmfd	sp!, {pc}
    5618:	e1a00000 	nop			@ (mov r0, r0)
    561c:	eafff301 	b	0x2228
    5620:	0a00001e 	beq	0x56a0
    5624:	e1a06000 	mov	r6, r0
    5628:	e1a05001 	mov	r5, r1
    562c:	e4d10004 	ldrb	r0, [r1], #4
    5630:	e1570000 	cmp	r7, r0
    5634:	8a000019 	bhi	0x56a0
    5638:	e1a00107 	lsl	r0, r7, #2
    563c:	e7910000 	ldr	r0, [r1, r0]
    5640:	e1b00000 	movs	r0, r0
    5644:	0a000015 	beq	0x56a0
    5648:	e0855000 	add	r5, r5, r0
    564c:	e1a0000b 	mov	r0, fp
    5650:	e92d8000 	stmfd	sp!, {pc}
    5654:	e1a00000 	nop			@ (mov r0, r0)
    5658:	ea000015 	b	0x56b4
    565c:	e5cba002 	strb	sl, [fp, #2]
    5660:	e5cb6003 	strb	r6, [fp, #3]
    5664:	e58b5004 	str	r5, [fp, #4]
    5668:	e3a00040 	mov	r0, #64	@ 0x40
    566c:	e5cb0009 	strb	r0, [fp, #9]
    5670:	e5cb000a 	strb	r0, [fp, #10]
    5674:	e5cb000b 	strb	r0, [fp, #11]
    5678:	e5cb000c 	strb	r0, [fp, #12]
    567c:	e5cb000e 	strb	r0, [fp, #14]
    5680:	e5cb0014 	strb	r0, [fp, #20]
    5684:	e3a000ff 	mov	r0, #255	@ 0xff
    5688:	e5cb000d 	strb	r0, [fp, #13]
    568c:	e5d50002 	ldrb	r0, [r5, #2]
    5690:	e5cb0008 	strb	r0, [fp, #8]
    5694:	e5950000 	ldr	r0, [r5]
    5698:	e58b0010 	str	r0, [fp, #16]
    569c:	e8bd8000 	ldmfd	sp!, {pc}
    56a0:	e1a0000b 	mov	r0, fp
    56a4:	e92d8000 	stmfd	sp!, {pc}
    56a8:	e1a00000 	nop			@ (mov r0, r0)
    56ac:	ea000000 	b	0x56b4
    56b0:	e8bd8000 	ldmfd	sp!, {pc}
    56b4:	e92d08f0 	push	{r4, r5, r6, r7, fp}
    56b8:	e1a0b000 	mov	fp, r0
    56bc:	e92d0001 	stmfd	sp!, {r0}
    56c0:	e92d8000 	stmfd	sp!, {pc}
    56c4:	e1a00000 	nop			@ (mov r0, r0)
    56c8:	ea00022c 	b	0x5f80
    56cc:	e8bd0001 	ldmfd	sp!, {r0}
    56d0:	e1a03000 	mov	r3, r0
    56d4:	e3a01020 	mov	r1, #32
    56d8:	e3a02000 	mov	r2, #0
    56dc:	e92d8000 	stmfd	sp!, {pc}
    56e0:	e1a00000 	nop			@ (mov r0, r0)
    56e4:	eafff14e 	b	0x1c24
    56e8:	e1a00003 	mov	r0, r3
    56ec:	e2800020 	add	r0, r0, #32
    56f0:	e3a01040 	mov	r1, #64	@ 0x40
    56f4:	e59f2b58 	ldr	r2, [pc, #2904]	@ 0x6254
    56f8:	e92d8000 	stmfd	sp!, {pc}
    56fc:	e1a00000 	nop			@ (mov r0, r0)
    5700:	eafff147 	b	0x1c24
    5704:	e8bd08f0 	pop	{r4, r5, r6, r7, fp}
    5708:	e8bd8000 	ldmfd	sp!, {pc}
    570c:	e3a08008 	mov	r8, #8
    5710:	ea00000c 	b	0x5748
    5714:	e3a08009 	mov	r8, #9
    5718:	ea00000a 	b	0x5748
    571c:	e3a0800a 	mov	r8, #10
    5720:	ea000008 	b	0x5748
    5724:	e3a0800b 	mov	r8, #11
    5728:	ea000006 	b	0x5748
    572c:	e3a0800d 	mov	r8, #13
    5730:	ea000004 	b	0x5748
    5734:	e3a08014 	mov	r8, #20
    5738:	ea000002 	b	0x5748
    573c:	e3a0800c 	mov	r8, #12
    5740:	ea000000 	b	0x5748
    5744:	e3a0800e 	mov	r8, #14
    5748:	e92d8000 	stmfd	sp!, {pc}
    574c:	e1a00000 	nop			@ (mov r0, r0)
    5750:	ea000220 	b	0x5fd8
    5754:	e7cb0008 	strb	r0, [fp, r8]
    5758:	e3110080 	tst	r1, #128	@ 0x80
    575c:	1a000000 	bne	0x5764
    5760:	eafff886 	b	0x3980
    5764:	e59c00e0 	ldr	r0, [ip, #224]	@ 0xe0
    5768:	e5db100f 	ldrb	r1, [fp, #15]
    576c:	e92d8000 	stmfd	sp!, {pc}
    5770:	e1a00000 	nop			@ (mov r0, r0)
    5774:	ea000234 	b	0x604c
    5778:	ea000003 	b	0x578c
    577c:	e1a01420 	lsr	r1, r0, #8
    5780:	e21110ff 	ands	r1, r1, #255	@ 0xff
    5784:	e5cc101c 	strb	r1, [ip, #28]
    5788:	eafff87c 	b	0x3980
    578c:	e1a04000 	mov	r4, r0
    5790:	e92d8000 	stmfd	sp!, {pc}
    5794:	e1a00000 	nop			@ (mov r0, r0)
    5798:	ea00020e 	b	0x5fd8
    579c:	e3140601 	tst	r4, #1048576	@ 0x100000
    57a0:	0a000003 	beq	0x57b4
    57a4:	e5db2011 	ldrb	r2, [fp, #17]
    57a8:	e1b02002 	movs	r2, r2
    57ac:	0a00000d 	beq	0x57e8
    57b0:	e2800080 	add	r0, r0, #128	@ 0x80
    57b4:	e1a0a000 	mov	sl, r0
    57b8:	e59b0004 	ldr	r0, [fp, #4]
    57bc:	e1b00000 	movs	r0, r0
    57c0:	0a000008 	beq	0x57e8
    57c4:	e5cba00f 	strb	sl, [fp, #15]
    57c8:	e3110080 	tst	r1, #128	@ 0x80
    57cc:	0a000002 	beq	0x57dc
    57d0:	e1b0a00a 	movs	sl, sl
    57d4:	0a000004 	beq	0x57ec
    57d8:	ea000009 	b	0x5804
    57dc:	e1b0a00a 	movs	sl, sl
    57e0:	0a000000 	beq	0x57e8
    57e4:	ea000006 	b	0x5804
    57e8:	eafff864 	b	0x3980
    57ec:	e201107f 	and	r1, r1, #127	@ 0x7f
    57f0:	e5cb1000 	strb	r1, [fp]
    57f4:	e92d8000 	stmfd	sp!, {pc}
    57f8:	e1a00000 	nop			@ (mov r0, r0)
    57fc:	ea0001df 	b	0x5f80
    5800:	eafffff8 	b	0x57e8
    5804:	e3811080 	orr	r1, r1, #128	@ 0x80
    5808:	e5cb1000 	strb	r1, [fp]
    580c:	e59b9004 	ldr	r9, [fp, #4]
    5810:	e5d97000 	ldrb	r7, [r9]
    5814:	e28b8020 	add	r8, fp, #32
    5818:	e2899008 	add	r9, r9, #8
    581c:	e92d0080 	stmfd	sp!, {r7}
    5820:	e92d8000 	stmfd	sp!, {pc}
    5824:	e1a00000 	nop			@ (mov r0, r0)
    5828:	ea000006 	b	0x5848
    582c:	e8bd0080 	ldmfd	sp!, {r7}
    5830:	e5d90000 	ldrb	r0, [r9]
    5834:	e0899000 	add	r9, r9, r0
    5838:	e2888004 	add	r8, r8, #4
    583c:	e2577001 	subs	r7, r7, #1
    5840:	5afffff5 	bpl	0x581c
    5844:	eaffffe7 	b	0x57e8
    5848:	e92d4000 	stmfd	sp!, {lr}
    584c:	e5d90004 	ldrb	r0, [r9, #4]
    5850:	e5d91005 	ldrb	r1, [r9, #5]
    5854:	e5d9200a 	ldrb	r2, [r9, #10]
    5858:	e5d83000 	ldrb	r3, [r8]
    585c:	e15a0000 	cmp	sl, r0
    5860:	3a000009 	bcc	0x588c
    5864:	e15a0001 	cmp	sl, r1
    5868:	8a000007 	bhi	0x588c
    586c:	e3120002 	tst	r2, #2
    5870:	0a000002 	beq	0x5880
    5874:	e3130080 	tst	r3, #128	@ 0x80
    5878:	0a0000aa 	beq	0x5b28
    587c:	ea0000a9 	b	0x5b28
    5880:	e3130080 	tst	r3, #128	@ 0x80
    5884:	0a000014 	beq	0x58dc
    5888:	ea000071 	b	0x5a54
    588c:	e3120002 	tst	r2, #2
    5890:	0a000002 	beq	0x58a0
    5894:	e3130080 	tst	r3, #128	@ 0x80
    5898:	0a000090 	beq	0x5ae0
    589c:	ea00000d 	b	0x58d8
    58a0:	e3130080 	tst	r3, #128	@ 0x80
    58a4:	0a00008d 	beq	0x5ae0
    58a8:	eaffffff 	b	0x58ac
    58ac:	e203307f 	and	r3, r3, #127	@ 0x7f
    58b0:	e5c83000 	strb	r3, [r8]
    58b4:	e5d80002 	ldrb	r0, [r8, #2]
    58b8:	e92d8000 	stmfd	sp!, {pc}
    58bc:	e1a00000 	nop			@ (mov r0, r0)
    58c0:	ea0001cf 	b	0x6004
    58c4:	e5d80003 	ldrb	r0, [r8, #3]
    58c8:	e92d8000 	stmfd	sp!, {pc}
    58cc:	e1a00000 	nop			@ (mov r0, r0)
    58d0:	ea0001cb 	b	0x6004
    58d4:	ea000081 	b	0x5ae0
    58d8:	ea000080 	b	0x5ae0
    58dc:	e3833080 	orr	r3, r3, #128	@ 0x80
    58e0:	e5c83000 	strb	r3, [r8]
    58e4:	e5c82001 	strb	r2, [r8, #1]
    58e8:	e3a00004 	mov	r0, #4
    58ec:	e5d81001 	ldrb	r1, [r8, #1]
    58f0:	e3110002 	tst	r1, #2
    58f4:	13800008 	orrne	r0, r0, #8
    58f8:	e5db1013 	ldrb	r1, [fp, #19]
    58fc:	e2811000 	add	r1, r1, #0
    5900:	e5db2002 	ldrb	r2, [fp, #2]
    5904:	e92d8000 	stmfd	sp!, {pc}
    5908:	e1a00000 	nop			@ (mov r0, r0)
    590c:	eaffed3f 	b	0xe10
    5910:	0a000072 	beq	0x5ae0
    5914:	e587803c 	str	r8, [r7, #60]	@ 0x3c
    5918:	e3a000ff 	mov	r0, #255	@ 0xff
    591c:	e5c80003 	strb	r0, [r8, #3]
    5920:	e5c86002 	strb	r6, [r8, #2]
    5924:	e5cc6160 	strb	r6, [ip, #352]	@ 0x160
    5928:	e1a00006 	mov	r0, r6
    592c:	e92d8000 	stmfd	sp!, {pc}
    5930:	e1a00000 	nop			@ (mov r0, r0)
    5934:	ea0000b1 	b	0x5c00
    5938:	e59c0170 	ldr	r0, [ip, #368]	@ 0x170
    593c:	e5d01008 	ldrb	r1, [r0, #8]
    5940:	e3110080 	tst	r1, #128	@ 0x80
    5944:	0a00000b 	beq	0x5978
    5948:	e3a00004 	mov	r0, #4
    594c:	e5d81001 	ldrb	r1, [r8, #1]
    5950:	e3110002 	tst	r1, #2
    5954:	13800008 	orrne	r0, r0, #8
    5958:	e5db1013 	ldrb	r1, [fp, #19]
    595c:	e2811000 	add	r1, r1, #0
    5960:	e5db2002 	ldrb	r2, [fp, #2]
    5964:	e92d8000 	stmfd	sp!, {pc}
    5968:	e1a00000 	nop			@ (mov r0, r0)
    596c:	eaffed27 	b	0xe10
    5970:	0a000000 	beq	0x5978
    5974:	e5c86003 	strb	r6, [r8, #3]
    5978:	e5d81003 	ldrb	r1, [r8, #3]
    597c:	e3a02000 	mov	r2, #0
    5980:	e5cc1161 	strb	r1, [ip, #353]	@ 0x161
    5984:	e5cc2165 	strb	r2, [ip, #357]	@ 0x165
    5988:	e5cc2164 	strb	r2, [ip, #356]	@ 0x164
    598c:	e92d8000 	stmfd	sp!, {pc}
    5990:	e1a00000 	nop			@ (mov r0, r0)
    5994:	eaffecca 	b	0xcc4
    5998:	0a000052 	beq	0x5ae8
    599c:	e3a00000 	mov	r0, #0
    59a0:	e5cc00a2 	strb	r0, [ip, #162]	@ 0xa2
    59a4:	e5d80002 	ldrb	r0, [r8, #2]
    59a8:	e92d8000 	stmfd	sp!, {pc}
    59ac:	e1a00000 	nop			@ (mov r0, r0)
    59b0:	eaffef01 	b	0x15bc
    59b4:	e92d8000 	stmfd	sp!, {pc}
    59b8:	e1a00000 	nop			@ (mov r0, r0)
    59bc:	eafff637 	b	0x32a0
    59c0:	e5d80002 	ldrb	r0, [r8, #2]
    59c4:	e1a01000 	mov	r1, r0
    59c8:	e1a00380 	lsl	r0, r0, #7
    59cc:	e3a0e502 	mov	lr, #8388608	@ 0x800000
    59d0:	e08ee000 	add	lr, lr, r0
    59d4:	e92d8000 	stmfd	sp!, {pc}
    59d8:	e1a00000 	nop			@ (mov r0, r0)
    59dc:	ea0000d7 	b	0x5d40
    59e0:	e58c0168 	str	r0, [ip, #360]	@ 0x168
    59e4:	e92d8000 	stmfd	sp!, {pc}
    59e8:	e1a00000 	nop			@ (mov r0, r0)
    59ec:	ea0000b8 	b	0x5cd4
    59f0:	e22000ff 	eor	r0, r0, #255	@ 0xff
    59f4:	e5cc0164 	strb	r0, [ip, #356]	@ 0x164
    59f8:	e92d8000 	stmfd	sp!, {pc}
    59fc:	e1a00000 	nop			@ (mov r0, r0)
    5a00:	ea0000e7 	b	0x5da4
    5a04:	e5cc0165 	strb	r0, [ip, #357]	@ 0x165
    5a08:	e92d8000 	stmfd	sp!, {pc}
    5a0c:	e1a00000 	nop			@ (mov r0, r0)
    5a10:	ea0000f0 	b	0x5dd8
    5a14:	e58c016c 	str	r0, [ip, #364]	@ 0x16c
    5a18:	e92d8000 	stmfd	sp!, {pc}
    5a1c:	e1a00000 	nop			@ (mov r0, r0)
    5a20:	ea00010b 	b	0x5e54
    5a24:	e5cc0166 	strb	r0, [ip, #358]	@ 0x166
    5a28:	e92d8000 	stmfd	sp!, {pc}
    5a2c:	e1a00000 	nop			@ (mov r0, r0)
    5a30:	ea0000f8 	b	0x5e18
    5a34:	e5cc0167 	strb	r0, [ip, #359]	@ 0x167
    5a38:	e92d8000 	stmfd	sp!, {pc}
    5a3c:	e1a00000 	nop			@ (mov r0, r0)
    5a40:	ea00003d 	b	0x5b3c
    5a44:	e92d8000 	stmfd	sp!, {pc}
    5a48:	e1a00000 	nop			@ (mov r0, r0)
    5a4c:	eaffeea7 	b	0x14f0
    5a50:	ea000022 	b	0x5ae0
    5a54:	e5d80002 	ldrb	r0, [r8, #2]
    5a58:	e35000ff 	cmp	r0, #255	@ 0xff
    5a5c:	0a00001f 	beq	0x5ae0
    5a60:	e1a01000 	mov	r1, r0
    5a64:	e1a00380 	lsl	r0, r0, #7
    5a68:	e3a0e502 	mov	lr, #8388608	@ 0x800000
    5a6c:	e08ee000 	add	lr, lr, r0
    5a70:	e92d8000 	stmfd	sp!, {pc}
    5a74:	e1a00000 	nop			@ (mov r0, r0)
    5a78:	ea0000b0 	b	0x5d40
    5a7c:	e58c0168 	str	r0, [ip, #360]	@ 0x168
    5a80:	e92d8000 	stmfd	sp!, {pc}
    5a84:	e1a00000 	nop			@ (mov r0, r0)
    5a88:	ea000091 	b	0x5cd4
    5a8c:	e22000ff 	eor	r0, r0, #255	@ 0xff
    5a90:	e5cc0164 	strb	r0, [ip, #356]	@ 0x164
    5a94:	e92d8000 	stmfd	sp!, {pc}
    5a98:	e1a00000 	nop			@ (mov r0, r0)
    5a9c:	ea0000c0 	b	0x5da4
    5aa0:	e5cc0165 	strb	r0, [ip, #357]	@ 0x165
    5aa4:	e92d8000 	stmfd	sp!, {pc}
    5aa8:	e1a00000 	nop			@ (mov r0, r0)
    5aac:	ea0000c9 	b	0x5dd8
    5ab0:	e58c016c 	str	r0, [ip, #364]	@ 0x16c
    5ab4:	e92d8000 	stmfd	sp!, {pc}
    5ab8:	e1a00000 	nop			@ (mov r0, r0)
    5abc:	ea0000e4 	b	0x5e54
    5ac0:	e5cc0166 	strb	r0, [ip, #358]	@ 0x166
    5ac4:	e92d8000 	stmfd	sp!, {pc}
    5ac8:	e1a00000 	nop			@ (mov r0, r0)
    5acc:	ea0000d1 	b	0x5e18
    5ad0:	e5cc0167 	strb	r0, [ip, #359]	@ 0x167
    5ad4:	e92d8000 	stmfd	sp!, {pc}
    5ad8:	e1a00000 	nop			@ (mov r0, r0)
    5adc:	ea000016 	b	0x5b3c
    5ae0:	e8bd4000 	ldmfd	sp!, {lr}
    5ae4:	e8bd8000 	ldmfd	sp!, {pc}
    5ae8:	e1a00001 	mov	r0, r1
    5aec:	e1a09001 	mov	r9, r1
    5af0:	e1a00300 	lsl	r0, r0, #6
    5af4:	e59fa75c 	ldr	sl, [pc, #1884]	@ 0x6258
    5af8:	e08aa000 	add	sl, sl, r0
    5afc:	e1a01381 	lsl	r1, r1, #7
    5b00:	e3a0b502 	mov	fp, #8388608	@ 0x800000
    5b04:	e08bb001 	add	fp, fp, r1
    5b08:	e92d8000 	stmfd	sp!, {pc}
    5b0c:	e1a00000 	nop			@ (mov r0, r0)
    5b10:	eaffec8f 	b	0xd54
    5b14:	e1a06009 	mov	r6, r9
    5b18:	e92d8000 	stmfd	sp!, {pc}
    5b1c:	e1a00000 	nop			@ (mov r0, r0)
    5b20:	ea000188 	b	0x6148
    5b24:	eaffffed 	b	0x5ae0
    5b28:	e59c00e0 	ldr	r0, [ip, #224]	@ 0xe0
    5b2c:	e1a00c20 	lsr	r0, r0, #24
    5b30:	e35000a6 	cmp	r0, #166	@ 0xa6
    5b34:	0affff68 	beq	0x58dc
    5b38:	1affffc5 	bne	0x5a54
    5b3c:	e5d80003 	ldrb	r0, [r8, #3]
    5b40:	e35000ff 	cmp	r0, #255	@ 0xff
    5b44:	0a000019 	beq	0x5bb0
    5b48:	e1a01000 	mov	r1, r0
    5b4c:	e1a01381 	lsl	r1, r1, #7
    5b50:	e3a07502 	mov	r7, #8388608	@ 0x800000
    5b54:	e0877001 	add	r7, r7, r1
    5b58:	e5dc0165 	ldrb	r0, [ip, #357]	@ 0x165
    5b5c:	e5dc1164 	ldrb	r1, [ip, #356]	@ 0x164
    5b60:	e92d8000 	stmfd	sp!, {pc}
    5b64:	e1a00000 	nop			@ (mov r0, r0)
    5b68:	eafff254 	b	0x24c0
    5b6c:	e59c2168 	ldr	r2, [ip, #360]	@ 0x168
    5b70:	e59c316c 	ldr	r3, [ip, #364]	@ 0x16c
    5b74:	e5dc4166 	ldrb	r4, [ip, #358]	@ 0x166
    5b78:	e5dc5167 	ldrb	r5, [ip, #359]	@ 0x167
    5b7c:	e5ce0029 	strb	r0, [lr, #41]	@ 0x29
    5b80:	e58e2018 	str	r2, [lr, #24]
    5b84:	e58e3038 	str	r3, [lr, #56]	@ 0x38
    5b88:	e58e303c 	str	r3, [lr, #60]	@ 0x3c
    5b8c:	e58e4020 	str	r4, [lr, #32]
    5b90:	e5ce5028 	strb	r5, [lr, #40]	@ 0x28
    5b94:	e5c71029 	strb	r1, [r7, #41]	@ 0x29
    5b98:	e5872018 	str	r2, [r7, #24]
    5b9c:	e5873038 	str	r3, [r7, #56]	@ 0x38
    5ba0:	e587303c 	str	r3, [r7, #60]	@ 0x3c
    5ba4:	e5874020 	str	r4, [r7, #32]
    5ba8:	e5c75028 	strb	r5, [r7, #40]	@ 0x28
    5bac:	e8bd8000 	ldmfd	sp!, {pc}
    5bb0:	e5dc0165 	ldrb	r0, [ip, #357]	@ 0x165
    5bb4:	e5ce0024 	strb	r0, [lr, #36]	@ 0x24
    5bb8:	e5dc0164 	ldrb	r0, [ip, #356]	@ 0x164
    5bbc:	e22000ff 	eor	r0, r0, #255	@ 0xff
    5bc0:	e5ce0029 	strb	r0, [lr, #41]	@ 0x29
    5bc4:	e59c0168 	ldr	r0, [ip, #360]	@ 0x168
    5bc8:	e5dc1164 	ldrb	r1, [ip, #356]	@ 0x164
    5bcc:	e5dc2165 	ldrb	r2, [ip, #357]	@ 0x165
    5bd0:	e59c316c 	ldr	r3, [ip, #364]	@ 0x16c
    5bd4:	e5dc4166 	ldrb	r4, [ip, #358]	@ 0x166
    5bd8:	e5dc5167 	ldrb	r5, [ip, #359]	@ 0x167
    5bdc:	e22110ff 	eor	r1, r1, #255	@ 0xff
    5be0:	e58e0018 	str	r0, [lr, #24]
    5be4:	e5ce1029 	strb	r1, [lr, #41]	@ 0x29
    5be8:	e5ce2024 	strb	r2, [lr, #36]	@ 0x24
    5bec:	e58e3038 	str	r3, [lr, #56]	@ 0x38
    5bf0:	e58e303c 	str	r3, [lr, #60]	@ 0x3c
    5bf4:	e58e4020 	str	r4, [lr, #32]
    5bf8:	e5ce5028 	strb	r5, [lr, #40]	@ 0x28
    5bfc:	e8bd8000 	ldmfd	sp!, {pc}
    5c00:	e1a00380 	lsl	r0, r0, #7
    5c04:	e3a07502 	mov	r7, #8388608	@ 0x800000
    5c08:	e0877000 	add	r7, r7, r0
    5c0c:	e59f6648 	ldr	r6, [pc, #1608]	@ 0x625c
    5c10:	e92d8000 	stmfd	sp!, {pc}
    5c14:	e1a00000 	nop			@ (mov r0, r0)
    5c18:	ea000173 	b	0x61ec
    5c1c:	e5db0003 	ldrb	r0, [fp, #3]
    5c20:	e1a00280 	lsl	r0, r0, #5
    5c24:	e59f1634 	ldr	r1, [pc, #1588]	@ 0x6260
    5c28:	e0811000 	add	r1, r1, r0
    5c2c:	e5910000 	ldr	r0, [r1]
    5c30:	e5991002 	ldr	r1, [r9, #2]
    5c34:	e3a02000 	mov	r2, #0
    5c38:	e0011006 	and	r1, r1, r6
    5c3c:	e92d8000 	stmfd	sp!, {pc}
    5c40:	e1a00000 	nop			@ (mov r0, r0)
    5c44:	eafff653 	b	0x3598
    5c48:	e5870004 	str	r0, [r7, #4]
    5c4c:	e5871000 	str	r1, [r7]
    5c50:	e5872008 	str	r2, [r7, #8]
    5c54:	e587300c 	str	r3, [r7, #12]
    5c58:	e59c0120 	ldr	r0, [ip, #288]	@ 0x120
    5c5c:	e58c0170 	str	r0, [ip, #368]	@ 0x170
    5c60:	e5d90001 	ldrb	r0, [r9, #1]
    5c64:	e5870020 	str	r0, [r7, #32]
    5c68:	e5d90008 	ldrb	r0, [r9, #8]
    5c6c:	e5c70025 	strb	r0, [r7, #37]	@ 0x25
    5c70:	e59f25ec 	ldr	r2, [pc, #1516]	@ 0x6264
    5c74:	e5d90006 	ldrb	r0, [r9, #6]
    5c78:	e5971010 	ldr	r1, [r7, #16]
    5c7c:	e0011002 	and	r1, r1, r2
    5c80:	e1811000 	orr	r1, r1, r0
    5c84:	e5871010 	str	r1, [r7, #16]
    5c88:	e5d90007 	ldrb	r0, [r9, #7]
    5c8c:	e5971014 	ldr	r1, [r7, #20]
    5c90:	e0011002 	and	r1, r1, r2
    5c94:	e1811000 	orr	r1, r1, r0
    5c98:	e5871014 	str	r1, [r7, #20]
    5c9c:	e5d90009 	ldrb	r0, [r9, #9]
    5ca0:	e3100001 	tst	r0, #1
    5ca4:	1a000007 	bne	0x5cc8
    5ca8:	e92d8000 	stmfd	sp!, {pc}
    5cac:	e1a00000 	nop			@ (mov r0, r0)
    5cb0:	ea000048 	b	0x5dd8
    5cb4:	e587002c 	str	r0, [r7, #44]	@ 0x2c
    5cb8:	e5870030 	str	r0, [r7, #48]	@ 0x30
    5cbc:	e5870034 	str	r0, [r7, #52]	@ 0x34
    5cc0:	e587003c 	str	r0, [r7, #60]	@ 0x3c
    5cc4:	ea000001 	b	0x5cd0
    5cc8:	e3a00020 	mov	r0, #32
    5ccc:	e5c70028 	strb	r0, [r7, #40]	@ 0x28
    5cd0:	e8bd8000 	ldmfd	sp!, {pc}
    5cd4:	e92d00f0 	push	{r4, r5, r6, r7}
    5cd8:	e5db0003 	ldrb	r0, [fp, #3]
    5cdc:	e92d8000 	stmfd	sp!, {pc}
    5ce0:	e1a00000 	nop			@ (mov r0, r0)
    5ce4:	ea0000d0 	b	0x602c
    5ce8:	e1a07000 	mov	r7, r0
    5cec:	e3a00000 	mov	r0, #0
    5cf0:	e92d8000 	stmfd	sp!, {pc}
    5cf4:	e1a00000 	nop			@ (mov r0, r0)
    5cf8:	ea0000ef 	b	0x60bc
    5cfc:	e7d70000 	ldrb	r0, [r7, r0]
    5d00:	e5db1008 	ldrb	r1, [fp, #8]
    5d04:	e5dc2005 	ldrb	r2, [ip, #5]
    5d08:	e1a01081 	lsl	r1, r1, #1
    5d0c:	e0000091 	mul	r0, r1, r0
    5d10:	e1b00420 	lsrs	r0, r0, #8
    5d14:	12800001 	addne	r0, r0, #1
    5d18:	e1a04000 	mov	r4, r0
    5d1c:	e1a02082 	lsl	r2, r2, #1
    5d20:	e0000092 	mul	r0, r2, r0
    5d24:	e1b00420 	lsrs	r0, r0, #8
    5d28:	12800001 	addne	r0, r0, #1
    5d2c:	e22000ff 	eor	r0, r0, #255	@ 0xff
    5d30:	11a000a0 	lsrne	r0, r0, #1
    5d34:	e1a01004 	mov	r1, r4
    5d38:	e8bd00f0 	pop	{r4, r5, r6, r7}
    5d3c:	e8bd8000 	ldmfd	sp!, {pc}
    5d40:	e3a00004 	mov	r0, #4
    5d44:	e92d8000 	stmfd	sp!, {pc}
    5d48:	e1a00000 	nop			@ (mov r0, r0)
    5d4c:	ea0000da 	b	0x60bc
    5d50:	e92d8000 	stmfd	sp!, {pc}
    5d54:	e1a00000 	nop			@ (mov r0, r0)
    5d58:	ea000003 	b	0x5d6c
    5d5c:	e92d8000 	stmfd	sp!, {pc}
    5d60:	e1a00000 	nop			@ (mov r0, r0)
    5d64:	ea0000c1 	b	0x6070
    5d68:	e8bd8000 	ldmfd	sp!, {pc}
    5d6c:	e5db100c 	ldrb	r1, [fp, #12]
    5d70:	e2411040 	sub	r1, r1, #64	@ 0x40
    5d74:	e1a01281 	lsl	r1, r1, #5
    5d78:	e5db200e 	ldrb	r2, [fp, #14]
    5d7c:	e2422040 	sub	r2, r2, #64	@ 0x40
    5d80:	e1a020c2 	asr	r2, r2, #1
    5d84:	e59f34dc 	ldr	r3, [pc, #1244]	@ 0x6268
    5d88:	e0800001 	add	r0, r0, r1
    5d8c:	e0800002 	add	r0, r0, r2
    5d90:	e1b00000 	movs	r0, r0
    5d94:	43a00000 	movmi	r0, #0
    5d98:	e1500003 	cmp	r0, r3
    5d9c:	81a00003 	movhi	r0, r3
    5da0:	e8bd8000 	ldmfd	sp!, {pc}
    5da4:	e3a00001 	mov	r0, #1
    5da8:	e92d8000 	stmfd	sp!, {pc}
    5dac:	e1a00000 	nop			@ (mov r0, r0)
    5db0:	ea0000c1 	b	0x60bc
    5db4:	e5db1009 	ldrb	r1, [fp, #9]
    5db8:	e3a0207c 	mov	r2, #124	@ 0x7c
    5dbc:	e92d8000 	stmfd	sp!, {pc}
    5dc0:	e1a00000 	nop			@ (mov r0, r0)
    5dc4:	eafff1fe 	b	0x25c4
    5dc8:	e92d8000 	stmfd	sp!, {pc}
    5dcc:	e1a00000 	nop			@ (mov r0, r0)
    5dd0:	eafff1ae 	b	0x2490
    5dd4:	e8bd8000 	ldmfd	sp!, {pc}
    5dd8:	e3a00002 	mov	r0, #2
    5ddc:	e92d8000 	stmfd	sp!, {pc}
    5de0:	e1a00000 	nop			@ (mov r0, r0)
    5de4:	ea0000b4 	b	0x60bc
    5de8:	e1a000a0 	lsr	r0, r0, #1
    5dec:	e5db100a 	ldrb	r1, [fp, #10]
    5df0:	e3a0207f 	mov	r2, #127	@ 0x7f
    5df4:	e92d8000 	stmfd	sp!, {pc}
    5df8:	e1a00000 	nop			@ (mov r0, r0)
    5dfc:	eafff1f7 	b	0x25e0
    5e00:	e1a00080 	lsl	r0, r0, #1
    5e04:	e59f1450 	ldr	r1, [pc, #1104]	@ 0x625c
    5e08:	e59f245c 	ldr	r2, [pc, #1116]	@ 0x626c
    5e0c:	e7920000 	ldr	r0, [r2, r0]
    5e10:	e0000001 	and	r0, r0, r1
    5e14:	e8bd8000 	ldmfd	sp!, {pc}
    5e18:	e5d90009 	ldrb	r0, [r9, #9]
    5e1c:	e3100001 	tst	r0, #1
    5e20:	1a000009 	bne	0x5e4c
    5e24:	e3a00005 	mov	r0, #5
    5e28:	e92d8000 	stmfd	sp!, {pc}
    5e2c:	e1a00000 	nop			@ (mov r0, r0)
    5e30:	ea0000a1 	b	0x60bc
    5e34:	e5db1014 	ldrb	r1, [fp, #20]
    5e38:	e3a0201f 	mov	r2, #31
    5e3c:	e92d8000 	stmfd	sp!, {pc}
    5e40:	e1a00000 	nop			@ (mov r0, r0)
    5e44:	eafff1de 	b	0x25c4
    5e48:	ea000000 	b	0x5e50
    5e4c:	e3a00020 	mov	r0, #32
    5e50:	e8bd8000 	ldmfd	sp!, {pc}
    5e54:	e3a00003 	mov	r0, #3
    5e58:	e92d8000 	stmfd	sp!, {pc}
    5e5c:	e1a00000 	nop			@ (mov r0, r0)
    5e60:	ea000095 	b	0x60bc
    5e64:	e5db100b 	ldrb	r1, [fp, #11]
    5e68:	e1a01121 	lsr	r1, r1, #2
    5e6c:	e2811030 	add	r1, r1, #48	@ 0x30
    5e70:	e3a0200f 	mov	r2, #15
    5e74:	e92d8000 	stmfd	sp!, {pc}
    5e78:	e1a00000 	nop			@ (mov r0, r0)
    5e7c:	eafff1d0 	b	0x25c4
    5e80:	e5db100d 	ldrb	r1, [fp, #13]
    5e84:	e35100ff 	cmp	r1, #255	@ 0xff
    5e88:	05d91001 	ldrbeq	r1, [r9, #1]
    5e8c:	e92d8000 	stmfd	sp!, {pc}
    5e90:	e1a00000 	nop			@ (mov r0, r0)
    5e94:	eafff178 	b	0x247c
    5e98:	e8bd8000 	ldmfd	sp!, {pc}
    5e9c:	e92d0100 	stmfd	sp!, {r8}
    5ea0:	e3a08000 	mov	r8, #0
    5ea4:	e1a00008 	mov	r0, r8
    5ea8:	e92d8000 	stmfd	sp!, {pc}
    5eac:	e1a00000 	nop			@ (mov r0, r0)
    5eb0:	ea000004 	b	0x5ec8
    5eb4:	e2888001 	add	r8, r8, #1
    5eb8:	e3580010 	cmp	r8, #16
    5ebc:	1afffff8 	bne	0x5ea4
    5ec0:	e8bd0100 	ldmfd	sp!, {r8}
    5ec4:	e8bd8000 	ldmfd	sp!, {pc}
    5ec8:	e92d0f00 	push	{r8, r9, sl, fp}
    5ecc:	e3a0b060 	mov	fp, #96	@ 0x60
    5ed0:	e000009b 	mul	r0, fp, r0
    5ed4:	e59fb394 	ldr	fp, [pc, #916]	@ 0x6270
    5ed8:	e08bb000 	add	fp, fp, r0
    5edc:	e28ba020 	add	sl, fp, #32
    5ee0:	e3a09010 	mov	r9, #16
    5ee4:	e5db0000 	ldrb	r0, [fp]
    5ee8:	e3100080 	tst	r0, #128	@ 0x80
    5eec:	0a00000e 	beq	0x5f2c
    5ef0:	e200007f 	and	r0, r0, #127	@ 0x7f
    5ef4:	e5cb0000 	strb	r0, [fp]
    5ef8:	e5da0000 	ldrb	r0, [sl]
    5efc:	e3100080 	tst	r0, #128	@ 0x80
    5f00:	0a000009 	beq	0x5f2c
    5f04:	e5da0002 	ldrb	r0, [sl, #2]
    5f08:	e92d8000 	stmfd	sp!, {pc}
    5f0c:	e1a00000 	nop			@ (mov r0, r0)
    5f10:	ea00000a 	b	0x5f40
    5f14:	e5da0003 	ldrb	r0, [sl, #3]
    5f18:	e92d8000 	stmfd	sp!, {pc}
    5f1c:	e1a00000 	nop			@ (mov r0, r0)
    5f20:	ea000006 	b	0x5f40
    5f24:	e59f0328 	ldr	r0, [pc, #808]	@ 0x6254
    5f28:	e58a0000 	str	r0, [sl]
    5f2c:	e28aa004 	add	sl, sl, #4
    5f30:	e2599001 	subs	r9, r9, #1
    5f34:	1affffef 	bne	0x5ef8
    5f38:	e8bd0f00 	pop	{r8, r9, sl, fp}
    5f3c:	e8bd8000 	ldmfd	sp!, {pc}
    5f40:	e35000ff 	cmp	r0, #255	@ 0xff
    5f44:	0a00000c 	beq	0x5f7c
    5f48:	e92d0e00 	push	{r9, sl, fp}
    5f4c:	e1a01000 	mov	r1, r0
    5f50:	e1a09000 	mov	r9, r0
    5f54:	e1a00300 	lsl	r0, r0, #6
    5f58:	e59fa2f8 	ldr	sl, [pc, #760]	@ 0x6258
    5f5c:	e08aa000 	add	sl, sl, r0
    5f60:	e1a01381 	lsl	r1, r1, #7
    5f64:	e3a0b502 	mov	fp, #8388608	@ 0x800000
    5f68:	e08bb001 	add	fp, fp, r1
    5f6c:	e92d8000 	stmfd	sp!, {pc}
    5f70:	e1a00000 	nop			@ (mov r0, r0)
    5f74:	eaffeb76 	b	0xd54
    5f78:	e8bd0e00 	pop	{r9, sl, fp}
    5f7c:	e8bd8000 	ldmfd	sp!, {pc}
    5f80:	e92d0700 	push	{r8, r9, sl}
    5f84:	e28ba020 	add	sl, fp, #32
    5f88:	e3a09000 	mov	r9, #0
    5f8c:	e59f82c0 	ldr	r8, [pc, #704]	@ 0x6254
    5f90:	e5da0000 	ldrb	r0, [sl]
    5f94:	e3100080 	tst	r0, #128	@ 0x80
    5f98:	0a000008 	beq	0x5fc0
    5f9c:	e5da0002 	ldrb	r0, [sl, #2]
    5fa0:	e92d8000 	stmfd	sp!, {pc}
    5fa4:	e1a00000 	nop			@ (mov r0, r0)
    5fa8:	ea000015 	b	0x6004
    5fac:	e5da0003 	ldrb	r0, [sl, #3]
    5fb0:	e92d8000 	stmfd	sp!, {pc}
    5fb4:	e1a00000 	nop			@ (mov r0, r0)
    5fb8:	ea000011 	b	0x6004
    5fbc:	e58a8000 	str	r8, [sl]
    5fc0:	e28aa004 	add	sl, sl, #4
    5fc4:	e2899001 	add	r9, r9, #1
    5fc8:	e3590010 	cmp	r9, #16
    5fcc:	1affffef 	bne	0x5f90
    5fd0:	e8bd0700 	pop	{r8, r9, sl}
    5fd4:	e8bd8000 	ldmfd	sp!, {pc}
    5fd8:	e1a01820 	lsr	r1, r0, #16
    5fdc:	e201100f 	and	r1, r1, #15
    5fe0:	e1a0a001 	mov	sl, r1
    5fe4:	e3a0b060 	mov	fp, #96	@ 0x60
    5fe8:	e001019b 	mul	r1, fp, r1
    5fec:	e59fb27c 	ldr	fp, [pc, #636]	@ 0x6270
    5ff0:	e08bb001 	add	fp, fp, r1
    5ff4:	e1a00420 	lsr	r0, r0, #8
    5ff8:	e21000ff 	ands	r0, r0, #255	@ 0xff
    5ffc:	e5db1000 	ldrb	r1, [fp]
    6000:	e8bd8000 	ldmfd	sp!, {pc}
    6004:	e35000ff 	cmp	r0, #255	@ 0xff
    6008:	0a000006 	beq	0x6028
    600c:	e1a00380 	lsl	r0, r0, #7
    6010:	e3a01502 	mov	r1, #8388608	@ 0x800000
    6014:	e0811000 	add	r1, r1, r0
    6018:	e1a00001 	mov	r0, r1
    601c:	e92d8000 	stmfd	sp!, {pc}
    6020:	e1a00000 	nop			@ (mov r0, r0)
    6024:	eaffefb3 	b	0x1ef8
    6028:	e8bd8000 	ldmfd	sp!, {pc}
    602c:	e1a00280 	lsl	r0, r0, #5
    6030:	e59f1228 	ldr	r1, [pc, #552]	@ 0x6260
    6034:	e0811000 	add	r1, r1, r0
    6038:	e3a00001 	mov	r0, #1
    603c:	e92d8000 	stmfd	sp!, {pc}
    6040:	e1a00000 	nop			@ (mov r0, r0)
    6044:	eafff03b 	b	0x2138
    6048:	e8bd8000 	ldmfd	sp!, {pc}
    604c:	e3a034a6 	mov	r3, #-1509949440	@ 0xa6000000
    6050:	e200080f 	and	r0, r0, #983040	@ 0xf0000
    6054:	e1833000 	orr	r3, r3, r0
    6058:	e351007f 	cmp	r1, #127	@ 0x7f
    605c:	83833601 	orrhi	r3, r3, #1048576	@ 0x100000
    6060:	e201107f 	and	r1, r1, #127	@ 0x7f
    6064:	e1a01401 	lsl	r1, r1, #8
    6068:	e1830001 	orr	r0, r3, r1
    606c:	e8bd8000 	ldmfd	sp!, {pc}
    6070:	e3a01d06 	mov	r1, #384	@ 0x180
    6074:	e3a02000 	mov	r2, #0
    6078:	e1500001 	cmp	r0, r1
    607c:	3a000002 	bcc	0x608c
    6080:	e2811d06 	add	r1, r1, #384	@ 0x180
    6084:	e2822001 	add	r2, r2, #1
    6088:	eafffffa 	b	0x6078
    608c:	e2422008 	sub	r2, r2, #8
    6090:	e202200f 	and	r2, r2, #15
    6094:	e1a02582 	lsl	r2, r2, #11
    6098:	e2411d06 	sub	r1, r1, #384	@ 0x180
    609c:	e0400001 	sub	r0, r0, r1
    60a0:	e1a00100 	lsl	r0, r0, #2
    60a4:	e59f11c8 	ldr	r1, [pc, #456]	@ 0x6274
    60a8:	e7910000 	ldr	r0, [r1, r0]
    60ac:	e59f11a8 	ldr	r1, [pc, #424]	@ 0x625c
    60b0:	e0000001 	and	r0, r0, r1
    60b4:	e0800002 	add	r0, r0, r2
    60b8:	e8bd8000 	ldmfd	sp!, {pc}
    60bc:	e92d40f0 	push	{r4, r5, r6, r7, lr}
    60c0:	e1a0e000 	mov	lr, r0
    60c4:	e5d94004 	ldrb	r4, [r9, #4]
    60c8:	e289700c 	add	r7, r9, #12
    60cc:	e1a06080 	lsl	r6, r0, #1
    60d0:	e0866007 	add	r6, r6, r7
    60d4:	e5d65000 	ldrb	r5, [r6]
    60d8:	e5d66001 	ldrb	r6, [r6, #1]
    60dc:	e0866007 	add	r6, r6, r7
    60e0:	e5d60000 	ldrb	r0, [r6]
    60e4:	e15a0000 	cmp	sl, r0
    60e8:	9a000006 	bls	0x6108
    60ec:	e2555001 	subs	r5, r5, #1
    60f0:	0a000004 	beq	0x6108
    60f4:	e2804001 	add	r4, r0, #1
    60f8:	e35e0004 	cmp	lr, #4
    60fc:	12866004 	addne	r6, r6, #4
    6100:	02866006 	addeq	r6, r6, #6
    6104:	eafffff5 	b	0x60e0
    6108:	e35e0004 	cmp	lr, #4
    610c:	15d60001 	ldrbne	r0, [r6, #1]
    6110:	15961002 	ldrne	r1, [r6, #2]
    6114:	05960002 	ldreq	r0, [r6, #2]
    6118:	05961004 	ldreq	r1, [r6, #4]
    611c:	e04a2004 	sub	r2, sl, r4
    6120:	e59f3134 	ldr	r3, [pc, #308]	@ 0x625c
    6124:	e0000003 	and	r0, r0, r3
    6128:	e0011003 	and	r1, r1, r3
    612c:	e1a01801 	lsl	r1, r1, #16
    6130:	e1a01841 	asr	r1, r1, #16
    6134:	e0030291 	mul	r3, r1, r2
    6138:	e1a03443 	asr	r3, r3, #8
    613c:	e0800003 	add	r0, r0, r3
    6140:	e8bd40f0 	pop	{r4, r5, r6, r7, lr}
    6144:	e8bd8000 	ldmfd	sp!, {pc}
    6148:	e92d00f0 	push	{r4, r5, r6, r7}
    614c:	e1a07000 	mov	r7, r0
    6150:	e1a00300 	lsl	r0, r0, #6
    6154:	e59f60fc 	ldr	r6, [pc, #252]	@ 0x6258
    6158:	e0866000 	add	r6, r6, r0
    615c:	e5d60000 	ldrb	r0, [r6]
    6160:	e3100004 	tst	r0, #4
    6164:	0a00001e 	beq	0x61e4
    6168:	e5d60012 	ldrb	r0, [r6, #18]
    616c:	e3a06060 	mov	r6, #96	@ 0x60
    6170:	e0000096 	mul	r0, r6, r0
    6174:	e59f60f4 	ldr	r6, [pc, #244]	@ 0x6270
    6178:	e0866000 	add	r6, r6, r0
    617c:	e5d60000 	ldrb	r0, [r6]
    6180:	e3100080 	tst	r0, #128	@ 0x80
    6184:	0a000016 	beq	0x61e4
    6188:	e2865020 	add	r5, r6, #32
    618c:	e3a04000 	mov	r4, #0
    6190:	e3a030ff 	mov	r3, #255	@ 0xff
    6194:	e5d50002 	ldrb	r0, [r5, #2]
    6198:	e1500007 	cmp	r0, r7
    619c:	05c53002 	strbeq	r3, [r5, #2]
    61a0:	05d51003 	ldrbeq	r1, [r5, #3]
    61a4:	05c53003 	strbeq	r3, [r5, #3]
    61a8:	0a000006 	beq	0x61c8
    61ac:	e5d50003 	ldrb	r0, [r5, #3]
    61b0:	e1500007 	cmp	r0, r7
    61b4:	05c53003 	strbeq	r3, [r5, #3]
    61b8:	05d51002 	ldrbeq	r1, [r5, #2]
    61bc:	05c53002 	strbeq	r3, [r5, #2]
    61c0:	0a000000 	beq	0x61c8
    61c4:	ea000002 	b	0x61d4
    61c8:	e3a00000 	mov	r0, #0
    61cc:	e5c50000 	strb	r0, [r5]
    61d0:	ea000003 	b	0x61e4
    61d4:	e2855004 	add	r5, r5, #4
    61d8:	e2844001 	add	r4, r4, #1
    61dc:	e3540010 	cmp	r4, #16
    61e0:	1affffeb 	bne	0x6194
    61e4:	e8bd00f0 	pop	{r4, r5, r6, r7}
    61e8:	e8bd8000 	ldmfd	sp!, {pc}
    61ec:	e59f3084 	ldr	r3, [pc, #132]	@ 0x6278
    61f0:	e3a02000 	mov	r2, #0
    61f4:	e7931002 	ldr	r1, [r3, r2]
    61f8:	e7871002 	str	r1, [r7, r2]
    61fc:	e2822004 	add	r2, r2, #4
    6200:	e3520048 	cmp	r2, #72	@ 0x48
    6204:	1afffffa 	bne	0x61f4
    6208:	e8bd8000 	ldmfd	sp!, {pc}
    620c:	00008000 	andeq	r8, r0, r0
	...
    621c:	0000001f 	andeq	r0, r0, pc, lsl r0
    6220:	0000001f 	andeq	r0, r0, pc, lsl r0
	...
    6234:	0000ff04 	andeq	pc, r0, r4, lsl #30
    6238:	00001ff7 	strdeq	r1, [r0], -r7
    623c:	00001ff7 	strdeq	r1, [r0], -r7
    6240:	00001ff7 	strdeq	r1, [r0], -r7
    6244:	00001ff7 	strdeq	r1, [r0], -r7
    6248:	00001ff7 	strdeq	r1, [r0], -r7
    624c:	00001f1f 	andeq	r1, r0, pc, lsl pc
    6250:	00001f1f 	andeq	r1, r0, pc, lsl pc
    6254:	ffff0000 			@ <UNDEFINED> instruction: 0xffff0000
    6258:	0000d800 	andeq	sp, r0, r0, lsl #16
    625c:	0000ffff 	strdeq	pc, [r0], -pc	@ <UNPREDICTABLE>
    6260:	0000eb00 	andeq	lr, r0, r0, lsl #22
    6264:	0000ffe0 	andeq	pc, r0, r0, ror #31
    6268:	000017ff 	strdeq	r1, [r0], -pc	@ <UNPREDICTABLE>
    626c:	0000819c 	muleq	r0, ip, r1
    6270:	0000ee00 	andeq	lr, r0, r0, lsl #28
    6274:	00008320 	andeq	r8, r0, r0, lsr #6
    6278:	0000710c 	andeq	r7, r0, ip, lsl #2
    627c:	e28f5c86 	add	r5, pc, #34304	@ 0x8600
    6280:	e2855014 	add	r5, r5, #20
    6284:	e595000c 	ldr	r0, [r5, #12]
    6288:	e2800001 	add	r0, r0, #1
    628c:	e585000c 	str	r0, [r5, #12]
    6290:	e5956008 	ldr	r6, [r5, #8]
    6294:	e3560000 	cmp	r6, #0
    6298:	ca00001e 	bgt	0x6318
    629c:	e28f0c82 	add	r0, pc, #33280	@ 0x8200
    62a0:	e28000f4 	add	r0, r0, #244	@ 0xf4
    62a4:	e3a03010 	mov	r3, #16
    62a8:	e5d01000 	ldrb	r1, [r0]
    62ac:	e3110080 	tst	r1, #128	@ 0x80
    62b0:	0a00000f 	beq	0x62f4
    62b4:	e3110001 	tst	r1, #1
    62b8:	03110020 	tsteq	r1, #32
    62bc:	1a00000c 	bne	0x62f4
    62c0:	e5904004 	ldr	r4, [r0, #4]
    62c4:	e5902014 	ldr	r2, [r0, #20]
    62c8:	e0422004 	sub	r2, r2, r4
    62cc:	e5802014 	str	r2, [r0, #20]
    62d0:	e3110002 	tst	r1, #2
    62d4:	0a000006 	beq	0x62f4
    62d8:	e5904020 	ldr	r4, [r0, #32]
    62dc:	e590201c 	ldr	r2, [r0, #28]
    62e0:	e0922004 	adds	r2, r2, r4
    62e4:	43a02000 	movmi	r2, #0
    62e8:	e352087f 	cmp	r2, #8323072	@ 0x7f0000
    62ec:	c3a0287f 	movgt	r2, #8323072	@ 0x7f0000
    62f0:	e580201c 	str	r2, [r0, #28]
    62f4:	e2800030 	add	r0, r0, #48	@ 0x30
    62f8:	e2533001 	subs	r3, r3, #1
    62fc:	1affffe9 	bne	0x62a8
    6300:	e1b06006 	movs	r6, r6
    6304:	0a000005 	beq	0x6320
    6308:	e2866001 	add	r6, r6, #1
    630c:	e5856008 	str	r6, [r5, #8]
    6310:	e0266006 	eor	r6, r6, r6
    6314:	eaffffe0 	b	0x629c
    6318:	e2466001 	sub	r6, r6, #1
    631c:	e5856008 	str	r6, [r5, #8]
    6320:	e8bd8000 	ldmfd	sp!, {pc}
    6324:	e28f0c85 	add	r0, pc, #34048	@ 0x8500
    6328:	e280006c 	add	r0, r0, #108	@ 0x6c
    632c:	e590100c 	ldr	r1, [r0, #12]
    6330:	e24110fa 	sub	r1, r1, #250	@ 0xfa
    6334:	e5801008 	str	r1, [r0, #8]
    6338:	e0211001 	eor	r1, r1, r1
    633c:	e580100c 	str	r1, [r0, #12]
    6340:	e8bd8000 	ldmfd	sp!, {pc}
    6344:	e28f8c82 	add	r8, pc, #33280	@ 0x8200
    6348:	e288804c 	add	r8, r8, #76	@ 0x4c
    634c:	e3a09010 	mov	r9, #16
    6350:	e5d83000 	ldrb	r3, [r8]
    6354:	e1b03003 	movs	r3, r3
    6358:	0a0000b7 	beq	0x663c
    635c:	e3130001 	tst	r3, #1
    6360:	03130020 	tsteq	r3, #32
    6364:	1a0000b4 	bne	0x663c
    6368:	e3130002 	tst	r3, #2
    636c:	0a00001a 	beq	0x63dc
    6370:	e598401c 	ldr	r4, [r8, #28]
    6374:	e204487f 	and	r4, r4, #8323072	@ 0x7f0000
    6378:	e5985024 	ldr	r5, [r8, #36]	@ 0x24
    637c:	e1540005 	cmp	r4, r5
    6380:	0a000015 	beq	0x63dc
    6384:	e5884024 	str	r4, [r8, #36]	@ 0x24
    6388:	e1a05424 	lsr	r5, r4, #8
    638c:	e59f62d8 	ldr	r6, [pc, #728]	@ 0x666c
    6390:	e1866005 	orr	r6, r6, r5
    6394:	e5d85002 	ldrb	r5, [r8, #2]
    6398:	e1860005 	orr	r0, r6, r5
    639c:	e5d85001 	ldrb	r5, [r8, #1]
    63a0:	e3150040 	tst	r5, #64	@ 0x40
    63a4:	0a000002 	beq	0x63b4
    63a8:	e92d8000 	stmfd	sp!, {pc}
    63ac:	e1a00000 	nop			@ (mov r0, r0)
    63b0:	eaffee33 	b	0x1c84
    63b4:	e3150020 	tst	r5, #32
    63b8:	0a000002 	beq	0x63c8
    63bc:	e92d8000 	stmfd	sp!, {pc}
    63c0:	e1a00000 	nop			@ (mov r0, r0)
    63c4:	eaffee52 	b	0x1d14
    63c8:	e3540000 	cmp	r4, #0
    63cc:	0a000087 	beq	0x65f0
    63d0:	e354087f 	cmp	r4, #8323072	@ 0x7f0000
    63d4:	03c33006 	biceq	r3, r3, #6
    63d8:	05c83000 	strbeq	r3, [r8]
    63dc:	e5d83001 	ldrb	r3, [r8, #1]
    63e0:	e5984014 	ldr	r4, [r8, #20]
    63e4:	e1a04844 	asr	r4, r4, #16
    63e8:	e3540000 	cmp	r4, #0
    63ec:	ca000092 	bgt	0x663c
    63f0:	e5984018 	ldr	r4, [r8, #24]

/* --- Track byte dispatch: read status/delta, assemble AICA word --- */
    63f4:	e5d45000 	ldrb	r5, [r4]
    63f8:	e35500ff 	cmp	r5, #255	@ 0xff
    63fc:	0a00003b 	beq	0x64f0

/* --- Status byte path: bit-7 set => save running status, read data --- */
    6400:	e3150080 	tst	r5, #128	@ 0x80
    6404:	12844001 	addne	r4, r4, #1
    6408:	15c85003 	strbne	r5, [r8, #3]
    640c:	05d85003 	ldrbeq	r5, [r8, #3]
    6410:	e1a00c05 	lsl	r0, r5, #24
    6414:	e4d46001 	ldrb	r6, [r4], #1
    6418:	e206707f 	and	r7, r6, #127	@ 0x7f
    641c:	e1800807 	orr	r0, r0, r7, lsl #16
    6420:	e2055070 	and	r5, r5, #112	@ 0x70
    6424:	e28f7e22 	add	r7, pc, #544	@ 0x220
    6428:	e0877125 	add	r7, r7, r5, lsr #2
    642c:	e597f000 	ldr	pc, [r7]

/* --- Command body handlers (fall-through from dispatch at 0x642c) --- */
    6430:	e3130080 	tst	r3, #128	@ 0x80
    6434:	0a00000d 	beq	0x6470
    6438:	e3c00101 	bic	r0, r0, #1073741824	@ 0x40000000
    643c:	e4d46001 	ldrb	r6, [r4], #1
    6440:	e1800406 	orr	r0, r0, r6, lsl #8
    6444:	e4d46001 	ldrb	r6, [r4], #1
    6448:	e206707f 	and	r7, r6, #127	@ 0x7f

/* --- AICA program dispatch table (8 entries × 4 bytes = 32 bytes) --- */
    644c:	e1800207 	orr	r0, r0, r7, lsl #4
    6450:	ea000006 	b	0x6470
    6454:	e206707f 	and	r7, r6, #127	@ 0x7f
    6458:	e3c008ff 	bic	r0, r0, #16711680	@ 0xff0000
    645c:	e1800407 	orr	r0, r0, r7, lsl #8
    6460:	ea000002 	b	0x6470
    6464:	e4d46001 	ldrb	r6, [r4], #1
    6468:	e206707f 	and	r7, r6, #127	@ 0x7f
    646c:	e1800407 	orr	r0, r0, r7, lsl #8
    6470:	e5d87002 	ldrb	r7, [r8, #2]

/* --- After dispatch: assemble AICA channel write word, route to output --- */
    6474:	e1800007 	orr	r0, r0, r7
    6478:	e1a07c20 	lsr	r7, r0, #24
    647c:	e35700a0 	cmp	r7, #160	@ 0xa0
    6480:	1a000003 	bne	0x6494
    6484:	e92d8000 	stmfd	sp!, {pc}
    6488:	e1a00000 	nop			@ (mov r0, r0)
    648c:	ea000078 	b	0x6674
    6490:	1a000067 	bne	0x6634
    6494:	e3130040 	tst	r3, #64	@ 0x40
    6498:	0a000002 	beq	0x64a8
    649c:	e92d8000 	stmfd	sp!, {pc}
    64a0:	e1a00000 	nop			@ (mov r0, r0)
    64a4:	eaffedf6 	b	0x1c84
    64a8:	e3130020 	tst	r3, #32
    64ac:	0a000002 	beq	0x64bc
    64b0:	e92d8000 	stmfd	sp!, {pc}
    64b4:	e1a00000 	nop			@ (mov r0, r0)
    64b8:	eaffee15 	b	0x1d14
    64bc:	e3160080 	tst	r6, #128	@ 0x80
    64c0:	1affffcb 	bne	0x63f4
    64c4:	e4d45001 	ldrb	r5, [r4], #1
    64c8:	e3150080 	tst	r5, #128	@ 0x80
    64cc:	0a000002 	beq	0x64dc
    64d0:	e4d46001 	ldrb	r6, [r4], #1
    64d4:	e1865385 	orr	r5, r6, r5, lsl #7
    64d8:	e3c55901 	bic	r5, r5, #16384	@ 0x4000
    64dc:	e5986014 	ldr	r6, [r8, #20]
    64e0:	e0866805 	add	r6, r6, r5, lsl #16
    64e4:	e5886014 	str	r6, [r8, #20]
    64e8:	e5884018 	str	r4, [r8, #24]
    64ec:	ea000052 	b	0x663c
    64f0:	e5984010 	ldr	r4, [r8, #16]
    64f4:	e35404ff 	cmp	r4, #-16777216	@ 0xff000000
    64f8:	0a00004a 	beq	0x6628
    64fc:	e4945004 	ldr	r5, [r4], #4
    6500:	e1b06c25 	lsrs	r6, r5, #24
    6504:	e3c554ff 	bic	r5, r5, #-16777216	@ 0xff000000
    6508:	1a000004 	bne	0x6520
    650c:	e598600c 	ldr	r6, [r8, #12]
    6510:	e0855006 	add	r5, r5, r6
    6514:	e5884010 	str	r4, [r8, #16]
    6518:	e1a04005 	mov	r4, r5
    651c:	eaffffb4 	b	0x63f4
    6520:	e3560080 	cmp	r6, #128	@ 0x80
    6524:	1a000028 	bne	0x65cc
    6528:	e5d86002 	ldrb	r6, [r8, #2]
    652c:	e1860405 	orr	r0, r6, r5, lsl #8
    6530:	e1a06c20 	lsr	r6, r0, #24
    6534:	e35600a0 	cmp	r6, #160	@ 0xa0
    6538:	1a000003 	bne	0x654c
    653c:	e92d8000 	stmfd	sp!, {pc}
    6540:	e1a00000 	nop			@ (mov r0, r0)
    6544:	ea00004a 	b	0x6674
    6548:	1a000039 	bne	0x6634
    654c:	e3130040 	tst	r3, #64	@ 0x40
    6550:	0a000002 	beq	0x6560
    6554:	e92d8000 	stmfd	sp!, {pc}
    6558:	e1a00000 	nop			@ (mov r0, r0)
    655c:	eaffedc8 	b	0x1c84
    6560:	e3130020 	tst	r3, #32
    6564:	0a000002 	beq	0x6574
    6568:	e92d8000 	stmfd	sp!, {pc}
    656c:	e1a00000 	nop			@ (mov r0, r0)
    6570:	eaffede7 	b	0x1d14
    6574:	e5d85000 	ldrb	r5, [r8]
    6578:	e3150018 	tst	r5, #24
    657c:	0affffde 	beq	0x64fc
    6580:	e59f00e4 	ldr	r0, [pc, #228]	@ 0x666c
    6584:	e3150008 	tst	r5, #8
    6588:	1225500a 	eorne	r5, r5, #10
    658c:	02255010 	eoreq	r5, r5, #16
    6590:	03800c7f 	orreq	r0, r0, #32512	@ 0x7f00
    6594:	e5c85000 	strb	r5, [r8]
    6598:	e5d85002 	ldrb	r5, [r8, #2]
    659c:	e1800005 	orr	r0, r0, r5
    65a0:	e3130040 	tst	r3, #64	@ 0x40
    65a4:	0a000002 	beq	0x65b4
    65a8:	e92d8000 	stmfd	sp!, {pc}
    65ac:	e1a00000 	nop			@ (mov r0, r0)
    65b0:	eaffedb3 	b	0x1c84
    65b4:	e3130020 	tst	r3, #32
    65b8:	0a000002 	beq	0x65c8
    65bc:	e92d8000 	stmfd	sp!, {pc}
    65c0:	e1a00000 	nop			@ (mov r0, r0)
    65c4:	eaffedd2 	b	0x1d14
    65c8:	eaffffcb 	b	0x64fc
    65cc:	e3560090 	cmp	r6, #144	@ 0x90
    65d0:	e598400c 	ldr	r4, [r8, #12]
    65d4:	e0844005 	add	r4, r4, r5
    65d8:	0affffc7 	beq	0x64fc
    65dc:	e1b05005 	movs	r5, r5
    65e0:	0a000010 	beq	0x6628
    65e4:	e3a064ff 	mov	r6, #-16777216	@ 0xff000000
    65e8:	e5886010 	str	r6, [r8, #16]
    65ec:	eaffff80 	b	0x63f4
    65f0:	e59f6078 	ldr	r6, [pc, #120]	@ 0x6670
    65f4:	e5d85002 	ldrb	r5, [r8, #2]
    65f8:	e1860005 	orr	r0, r6, r5
    65fc:	e5d85001 	ldrb	r5, [r8, #1]
    6600:	e3150040 	tst	r5, #64	@ 0x40
    6604:	0a000002 	beq	0x6614
    6608:	e92d8000 	stmfd	sp!, {pc}
    660c:	e1a00000 	nop			@ (mov r0, r0)
    6610:	eaffed9b 	b	0x1c84
    6614:	e3150020 	tst	r5, #32
    6618:	0a000002 	beq	0x6628
    661c:	e92d8000 	stmfd	sp!, {pc}
    6620:	e1a00000 	nop			@ (mov r0, r0)
    6624:	eaffedba 	b	0x1d14
    6628:	e92d8000 	stmfd	sp!, {pc}
    662c:	e1a00000 	nop			@ (mov r0, r0)
    6630:	ea000064 	b	0x67c8
    6634:	e0255005 	eor	r5, r5, r5
    6638:	e5c85000 	strb	r5, [r8]
    663c:	e2888030 	add	r8, r8, #48	@ 0x30
    6640:	e2599001 	subs	r9, r9, #1
    6644:	1affff41 	bne	0x6350
    6648:	e8bd8000 	ldmfd	sp!, {pc}

/* --- DISPATCH TABLE (r5 & 0x70) >> 2 indexes here:
        0x00/0x40 → 0x7370
        0x10/0x20/0x30/0x70 → 0x7364
        0x50 → 0x7330
        0x60 → 0x7354  --- */
    664c:	00007370 	andeq	r7, r0, r0, ror r3
    6650:	00007364 	andeq	r7, r0, r4, ror #6
    6654:	00007364 	andeq	r7, r0, r4, ror #6
    6658:	00007364 	andeq	r7, r0, r4, ror #6
    665c:	00007370 	andeq	r7, r0, r0, ror r3
    6660:	00007330 	andeq	r7, r0, r0, lsr r3
    6664:	00007354 	andeq	r7, r0, r4, asr r3
    6668:	00007364 	andeq	r7, r0, r4, ror #6
    666c:	a01c0000 	andsge	r0, ip, r0
    6670:	a0001200 	andge	r1, r0, r0, lsl #4

/* --- Note-on handler (upper byte 0xa0): set start bit, route to AICA write --- */
    6674:	03800080 	orreq	r0, r0, #128	@ 0x80
    6678:	e1a05820 	lsr	r5, r0, #16
    667c:	e215507f 	ands	r5, r5, #127	@ 0x7f
    6680:	0a000031 	beq	0x674c
    6684:	e3550024 	cmp	r5, #36	@ 0x24
    6688:	0a000041 	beq	0x6794
    668c:	e3550020 	cmp	r5, #32
    6690:	1a000047 	bne	0x67b4
    6694:	e1a05420 	lsr	r5, r0, #8
    6698:	e21550ff 	ands	r5, r5, #255	@ 0xff
    669c:	0a000044 	beq	0x67b4
    66a0:	e28fac7e 	add	sl, pc, #32256	@ 0x7e00
    66a4:	e28aa0f0 	add	sl, sl, #240	@ 0xf0
    66a8:	e3a0b010 	mov	fp, #16
    66ac:	e5d87028 	ldrb	r7, [r8, #40]	@ 0x28
    66b0:	e158000a 	cmp	r8, sl
    66b4:	0a00001c 	beq	0x672c
    66b8:	e5da1000 	ldrb	r1, [sl]
    66bc:	e3110080 	tst	r1, #128	@ 0x80
    66c0:	13110020 	tstne	r1, #32
    66c4:	0a000018 	beq	0x672c
    66c8:	e5da2028 	ldrb	r2, [sl, #40]	@ 0x28
    66cc:	e1520007 	cmp	r2, r7
    66d0:	1a000015 	bne	0x672c
    66d4:	e5da2029 	ldrb	r2, [sl, #41]	@ 0x29
    66d8:	e1550002 	cmp	r5, r2
    66dc:	8a000012 	bhi	0x672c
    66e0:	e3c11020 	bic	r1, r1, #32
    66e4:	e5ca1000 	strb	r1, [sl]
    66e8:	e3130080 	tst	r3, #128	@ 0x80
    66ec:	e5da1001 	ldrb	r1, [sl, #1]
    66f0:	1a000006 	bne	0x6710
    66f4:	e3110080 	tst	r1, #128	@ 0x80
    66f8:	1a00000b 	bne	0x672c
    66fc:	e5da1002 	ldrb	r1, [sl, #2]
    6700:	e5d82002 	ldrb	r2, [r8, #2]
    6704:	e1510002 	cmp	r1, r2
    6708:	1a000007 	bne	0x672c
    670c:	ea000005 	b	0x6728
    6710:	e3110080 	tst	r1, #128	@ 0x80
    6714:	0a000004 	beq	0x672c
    6718:	e203201f 	and	r2, r3, #31
    671c:	e201101f 	and	r1, r1, #31
    6720:	e1510002 	cmp	r1, r2
    6724:	1a000000 	bne	0x672c
    6728:	e3833102 	orr	r3, r3, #-2147483648	@ 0x80000000
    672c:	e28aa030 	add	sl, sl, #48	@ 0x30
    6730:	e25bb001 	subs	fp, fp, #1
    6734:	1affffdd 	bne	0x66b0
    6738:	e3130102 	tst	r3, #-2147483648	@ 0x80000000
    673c:	0a00001c 	beq	0x67b4
    6740:	e3c33102 	bic	r3, r3, #-2147483648	@ 0x80000000
    6744:	e3b0a001 	movs	sl, #1
    6748:	e8bd8000 	ldmfd	sp!, {pc}
    674c:	e1a05420 	lsr	r5, r0, #8
    6750:	e205507f 	and	r5, r5, #127	@ 0x7f
    6754:	e255500c 	subs	r5, r5, #12
    6758:	4a000015 	bmi	0x67b4
    675c:	e3550003 	cmp	r5, #3
    6760:	2a000013 	bcs	0x67b4
    6764:	e28f7050 	add	r7, pc, #80	@ 0x50
    6768:	e0877105 	add	r7, r7, r5, lsl #2
    676c:	e597f000 	ldr	pc, [r7]
    6770:	e3833040 	orr	r3, r3, #64	@ 0x40
    6774:	e5c83001 	strb	r3, [r8, #1]
    6778:	ea00000d 	b	0x67b4
    677c:	e3833020 	orr	r3, r3, #32
    6780:	e5c83001 	strb	r3, [r8, #1]
    6784:	ea00000a 	b	0x67b4
    6788:	e3833060 	orr	r3, r3, #96	@ 0x60
    678c:	e5c83001 	strb	r3, [r8, #1]
    6790:	ea000007 	b	0x67b4
    6794:	e28f7c4d 	add	r7, pc, #19712	@ 0x4d00
    6798:	e2877014 	add	r7, r7, #20
    679c:	e5975000 	ldr	r5, [r7]
    67a0:	e1b05005 	movs	r5, r5
    67a4:	1a000002 	bne	0x67b4
    67a8:	e1a05420 	lsr	r5, r0, #8
    67ac:	e205507f 	and	r5, r5, #127	@ 0x7f
    67b0:	e5875000 	str	r5, [r7]
    67b4:	e3b0a000 	movs	sl, #0
    67b8:	e8bd8000 	ldmfd	sp!, {pc}
    67bc:	00007670 	andeq	r7, r0, r0, ror r6
    67c0:	0000767c 	andeq	r7, r0, ip, ror r6
    67c4:	00007688 	andeq	r7, r0, r8, lsl #13
    67c8:	e28fac7d 	add	sl, pc, #32000	@ 0x7d00
    67cc:	e28aa0c8 	add	sl, sl, #200	@ 0xc8
    67d0:	e3a0b010 	mov	fp, #16
    67d4:	e5d87028 	ldrb	r7, [r8, #40]	@ 0x28
    67d8:	e0255005 	eor	r5, r5, r5
    67dc:	e158000a 	cmp	r8, sl
    67e0:	0a000007 	beq	0x6804
    67e4:	e5da1000 	ldrb	r1, [sl]
    67e8:	e3110080 	tst	r1, #128	@ 0x80
    67ec:	13110020 	tstne	r1, #32
    67f0:	0a000003 	beq	0x6804
    67f4:	e5da2028 	ldrb	r2, [sl, #40]	@ 0x28
    67f8:	e1520007 	cmp	r2, r7
    67fc:	1a000000 	bne	0x6804
    6800:	e5ca5000 	strb	r5, [sl]
    6804:	e28aa030 	add	sl, sl, #48	@ 0x30
    6808:	e25bb001 	subs	fp, fp, #1
    680c:	1afffff2 	bne	0x67dc
    6810:	e8bd8000 	ldmfd	sp!, {pc}
    6814:	e1a01c20 	lsr	r1, r0, #24
    6818:	e35100a0 	cmp	r1, #160	@ 0xa0
    681c:	1a0001ab 	bne	0x6ed0
    6820:	e20018ff 	and	r1, r0, #16711680	@ 0xff0000
    6824:	e351080a 	cmp	r1, #655360	@ 0xa0000
    6828:	8a00001d 	bhi	0x68a4
    682c:	e28f2004 	add	r2, pc, #4
    6830:	e7922721 	ldr	r2, [r2, r1, lsr #14]
    6834:	e1a0f002 	mov	pc, r2
    6838:	00007764 	andeq	r7, r0, r4, ror #14
    683c:	00007e20 	andeq	r7, r0, r0, lsr #28
    6840:	000079d0 	ldrdeq	r7, [r0], -r0
    6844:	00007a20 	andeq	r7, r0, r0, lsr #20
    6848:	00007e20 	andeq	r7, r0, r0, lsr #28
    684c:	00007e20 	andeq	r7, r0, r0, lsr #28
    6850:	00007a70 	andeq	r7, r0, r0, ror sl
    6854:	00007e20 	andeq	r7, r0, r0, lsr #28
    6858:	00007e20 	andeq	r7, r0, r0, lsr #28
    685c:	00007918 	andeq	r7, r0, r8, lsl r9
    6860:	00007950 	andeq	r7, r0, r0, asr r9
    6864:	e2001cff 	and	r1, r0, #65280	@ 0xff00
    6868:	e3510c19 	cmp	r1, #6400	@ 0x1900
    686c:	8a00000c 	bhi	0x68a4
    6870:	e28f2030 	add	r2, pc, #48	@ 0x30
    6874:	e7d21421 	ldrb	r1, [r2, r1, lsr #8]
    6878:	e35100ff 	cmp	r1, #255	@ 0xff
    687c:	0a000008 	beq	0x68a4
    6880:	e28f203c 	add	r2, pc, #60	@ 0x3c
    6884:	e7921101 	ldr	r1, [r2, r1, lsl #2]
    6888:	e28f8c7d 	add	r8, pc, #32000	@ 0x7d00
    688c:	e2888008 	add	r8, r8, #8
    6890:	e3a09010 	mov	r9, #16
    6894:	e0244004 	eor	r4, r4, r4
    6898:	e2006007 	and	r6, r0, #7
    689c:	e3100080 	tst	r0, #128	@ 0x80
    68a0:	e1a0f001 	mov	pc, r1
    68a4:	e8bd8000 	ldmfd	sp!, {pc}
    68a8:	020100ff 	andeq	r0, r1, #255	@ 0xff
    68ac:	ffffffff 			@ <UNDEFINED> instruction: 0xffffffff
    68b0:	ffffffff 			@ <UNDEFINED> instruction: 0xffffffff
    68b4:	ffffffff 			@ <UNDEFINED> instruction: 0xffffffff
    68b8:	050403ff 	streq	r0, [r4, #-1023]	@ 0xfffffc01
    68bc:	ffffffff 			@ <UNDEFINED> instruction: 0xffffffff
    68c0:	00000706 	andeq	r0, r0, r6, lsl #14
    68c4:	000077e4 	andeq	r7, r0, r4, ror #15
    68c8:	0000781c 	andeq	r7, r0, ip, lsl r8
    68cc:	00007864 	andeq	r7, r0, r4, ror #16
    68d0:	00007880 	andeq	r7, r0, r0, lsl #17
    68d4:	000078c8 	andeq	r7, r0, r8, asr #17
    68d8:	000078f0 	strdeq	r7, [r0], -r0
    68dc:	00007acc 	andeq	r7, r0, ip, asr #21
    68e0:	00007acc 	andeq	r7, r0, ip, asr #21
    68e4:	1a000003 	bne	0x68f8
    68e8:	e4884030 	str	r4, [r8], #48	@ 0x30
    68ec:	e2599001 	subs	r9, r9, #1
    68f0:	1afffffc 	bne	0x68e8
    68f4:	e8bd8000 	ldmfd	sp!, {pc}
    68f8:	e5d85002 	ldrb	r5, [r8, #2]
    68fc:	e1550006 	cmp	r5, r6
    6900:	05d85001 	ldrbeq	r5, [r8, #1]
    6904:	03150080 	tsteq	r5, #128	@ 0x80
    6908:	15c84000 	strbne	r4, [r8]
    690c:	e2888030 	add	r8, r8, #48	@ 0x30
    6910:	e2599001 	subs	r9, r9, #1
    6914:	1afffff7 	bne	0x68f8
    6918:	e8bd8000 	ldmfd	sp!, {pc}
    691c:	1a000006 	bne	0x693c
    6920:	e5d85001 	ldrb	r5, [r8, #1]
    6924:	e3150080 	tst	r5, #128	@ 0x80
    6928:	05c84000 	strbeq	r4, [r8]
    692c:	e2888030 	add	r8, r8, #48	@ 0x30
    6930:	e2599001 	subs	r9, r9, #1
    6934:	1afffff9 	bne	0x6920
    6938:	e8bd8000 	ldmfd	sp!, {pc}
    693c:	e5d85001 	ldrb	r5, [r8, #1]
    6940:	e3150080 	tst	r5, #128	@ 0x80
    6944:	1a000002 	bne	0x6954
    6948:	e5d85002 	ldrb	r5, [r8, #2]
    694c:	e1550006 	cmp	r5, r6
    6950:	15c84000 	strbne	r4, [r8]
    6954:	e2888030 	add	r8, r8, #48	@ 0x30
    6958:	e2599001 	subs	r9, r9, #1
    695c:	1afffff6 	bne	0x693c
    6960:	e8bd8000 	ldmfd	sp!, {pc}
    6964:	e5d85001 	ldrb	r5, [r8, #1]
    6968:	e3150080 	tst	r5, #128	@ 0x80
    696c:	15c84000 	strbne	r4, [r8]
    6970:	e2888030 	add	r8, r8, #48	@ 0x30
    6974:	e2599001 	subs	r9, r9, #1
    6978:	1afffff9 	bne	0x6964
    697c:	e8bd8000 	ldmfd	sp!, {pc}
    6980:	1a000006 	bne	0x69a0
    6984:	e5d85002 	ldrb	r5, [r8, #2]
    6988:	e1550006 	cmp	r5, r6
    698c:	05c84000 	strbeq	r4, [r8]
    6990:	e2888030 	add	r8, r8, #48	@ 0x30
    6994:	e2599001 	subs	r9, r9, #1
    6998:	1afffff9 	bne	0x6984
    699c:	e8bd8000 	ldmfd	sp!, {pc}
    69a0:	e5d85002 	ldrb	r5, [r8, #2]
    69a4:	e1550006 	cmp	r5, r6
    69a8:	1a000002 	bne	0x69b8
    69ac:	e5d85001 	ldrb	r5, [r8, #1]
    69b0:	e3150080 	tst	r5, #128	@ 0x80
    69b4:	15c84000 	strbne	r4, [r8]
    69b8:	e2888030 	add	r8, r8, #48	@ 0x30
    69bc:	e2599001 	subs	r9, r9, #1
    69c0:	1afffff6 	bne	0x69a0
    69c4:	e8bd8000 	ldmfd	sp!, {pc}
    69c8:	1a000007 	bne	0x69ec
    69cc:	e5d85002 	ldrb	r5, [r8, #2]
    69d0:	e1550006 	cmp	r5, r6
    69d4:	05d85001 	ldrbeq	r5, [r8, #1]
    69d8:	03150080 	tsteq	r5, #128	@ 0x80
    69dc:	05c84000 	strbeq	r4, [r8]
    69e0:	e2888030 	add	r8, r8, #48	@ 0x30
    69e4:	e2599001 	subs	r9, r9, #1
    69e8:	1afffff7 	bne	0x69cc
    69ec:	e8bd8000 	ldmfd	sp!, {pc}
    69f0:	e5d85002 	ldrb	r5, [r8, #2]
    69f4:	e1550006 	cmp	r5, r6
    69f8:	1a000002 	bne	0x6a08
    69fc:	e5985001 	ldr	r5, [r8, #1]
    6a00:	e3150080 	tst	r5, #128	@ 0x80
    6a04:	15c84000 	strbne	r4, [r8]
    6a08:	e2888030 	add	r8, r8, #48	@ 0x30
    6a0c:	e2599001 	subs	r9, r9, #1
    6a10:	1afffff6 	bne	0x69f0
    6a14:	e8bd8000 	ldmfd	sp!, {pc}
    6a18:	e28f2c7e 	add	r2, pc, #32256	@ 0x7e00
    6a1c:	e2822078 	add	r2, r2, #120	@ 0x78
    6a20:	e2001007 	and	r1, r0, #7
    6a24:	e5c21000 	strb	r1, [r2]
    6a28:	e2001c7e 	and	r1, r0, #32256	@ 0x7e00
    6a2c:	e28f4f67 	add	r4, pc, #412	@ 0x19c
    6a30:	e1a013a1 	lsr	r1, r1, #7
    6a34:	e7943001 	ldr	r3, [r4, r1]
    6a38:	e3100c01 	tst	r0, #256	@ 0x100
    6a3c:	03c334ff 	biceq	r3, r3, #-16777216	@ 0xff000000
    6a40:	03c338ff 	biceq	r3, r3, #16711680	@ 0xff0000
    6a44:	11a03823 	lsrne	r3, r3, #16
    6a48:	e5823004 	str	r3, [r2, #4]
    6a4c:	e8bd8000 	ldmfd	sp!, {pc}
    6a50:	e28f2c7b 	add	r2, pc, #31488	@ 0x7b00
    6a54:	e2822040 	add	r2, r2, #64	@ 0x40
    6a58:	e3a03010 	mov	r3, #16
    6a5c:	e5d21000 	ldrb	r1, [r2]
    6a60:	e1b01001 	movs	r1, r1
    6a64:	0a000015 	beq	0x6ac0
    6a68:	e5d24001 	ldrb	r4, [r2, #1]
    6a6c:	e3140080 	tst	r4, #128	@ 0x80
    6a70:	1a000012 	bne	0x6ac0
    6a74:	e20040ff 	and	r4, r0, #255	@ 0xff
    6a78:	e5d25002 	ldrb	r5, [r2, #2]
    6a7c:	e1540005 	cmp	r4, r5
    6a80:	1a00000e 	bne	0x6ac0
    6a84:	e3811006 	orr	r1, r1, #6
    6a88:	e5c21000 	strb	r1, [r2]
    6a8c:	e2001c7e 	and	r1, r0, #32256	@ 0x7e00
    6a90:	e28f4f4e 	add	r4, pc, #312	@ 0x138
    6a94:	e1a013a1 	lsr	r1, r1, #7
    6a98:	e7943001 	ldr	r3, [r4, r1]
    6a9c:	e3100c01 	tst	r0, #256	@ 0x100
    6aa0:	03c334ff 	biceq	r3, r3, #-16777216	@ 0xff000000
    6aa4:	03c338ff 	biceq	r3, r3, #16711680	@ 0xff0000
    6aa8:	11a03823 	lsrne	r3, r3, #16
    6aac:	e59f1744 	ldr	r1, [pc, #1860]	@ 0x71f8
    6ab0:	e0233001 	eor	r3, r3, r1
    6ab4:	e2833001 	add	r3, r3, #1
    6ab8:	e5823020 	str	r3, [r2, #32]
    6abc:	e8bd8000 	ldmfd	sp!, {pc}
    6ac0:	e2822030 	add	r2, r2, #48	@ 0x30
    6ac4:	e2533001 	subs	r3, r3, #1
    6ac8:	1affffe3 	bne	0x6a5c
    6acc:	e8bd8000 	ldmfd	sp!, {pc}
    6ad0:	e28f2c7a 	add	r2, pc, #31232	@ 0x7a00
    6ad4:	e28220c0 	add	r2, r2, #192	@ 0xc0
    6ad8:	e3a03010 	mov	r3, #16
    6adc:	e5d21000 	ldrb	r1, [r2]
    6ae0:	e1b01001 	movs	r1, r1
    6ae4:	0a000009 	beq	0x6b10
    6ae8:	e5d24001 	ldrb	r4, [r2, #1]
    6aec:	e3140080 	tst	r4, #128	@ 0x80
    6af0:	1a000006 	bne	0x6b10
    6af4:	e20040ff 	and	r4, r0, #255	@ 0xff
    6af8:	e5d25002 	ldrb	r5, [r2, #2]
    6afc:	e1540005 	cmp	r4, r5
    6b00:	1a000002 	bne	0x6b10
    6b04:	e3811001 	orr	r1, r1, #1
    6b08:	e5c21000 	strb	r1, [r2]
    6b0c:	e8bd8000 	ldmfd	sp!, {pc}
    6b10:	e2822030 	add	r2, r2, #48	@ 0x30
    6b14:	e2533001 	subs	r3, r3, #1
    6b18:	1affffef 	bne	0x6adc
    6b1c:	e8bd8000 	ldmfd	sp!, {pc}
    6b20:	e28f2c7a 	add	r2, pc, #31232	@ 0x7a00
    6b24:	e2822070 	add	r2, r2, #112	@ 0x70
    6b28:	e3a03010 	mov	r3, #16
    6b2c:	e5d21000 	ldrb	r1, [r2]
    6b30:	e1b01001 	movs	r1, r1
    6b34:	0a000009 	beq	0x6b60
    6b38:	e5d24001 	ldrb	r4, [r2, #1]
    6b3c:	e3140080 	tst	r4, #128	@ 0x80
    6b40:	1a000006 	bne	0x6b60
    6b44:	e20040ff 	and	r4, r0, #255	@ 0xff
    6b48:	e5d25002 	ldrb	r5, [r2, #2]
    6b4c:	e1540005 	cmp	r4, r5
    6b50:	1a000002 	bne	0x6b60
    6b54:	e3c11001 	bic	r1, r1, #1
    6b58:	e5c21000 	strb	r1, [r2]
    6b5c:	e8bd8000 	ldmfd	sp!, {pc}
    6b60:	e2822030 	add	r2, r2, #48	@ 0x30
    6b64:	e2533001 	subs	r3, r3, #1
    6b68:	1affffef 	bne	0x6b2c
    6b6c:	e8bd8000 	ldmfd	sp!, {pc}
    6b70:	e28f2c7a 	add	r2, pc, #31232	@ 0x7a00
    6b74:	e2822020 	add	r2, r2, #32
    6b78:	e3a03010 	mov	r3, #16
    6b7c:	e5d21000 	ldrb	r1, [r2]
    6b80:	e1b01001 	movs	r1, r1
    6b84:	0a00000c 	beq	0x6bbc
    6b88:	e5d24001 	ldrb	r4, [r2, #1]
    6b8c:	e3140080 	tst	r4, #128	@ 0x80
    6b90:	1a000009 	bne	0x6bbc
    6b94:	e20040ff 	and	r4, r0, #255	@ 0xff
    6b98:	e5d25002 	ldrb	r5, [r2, #2]
    6b9c:	e1540005 	cmp	r4, r5
    6ba0:	1a000005 	bne	0x6bbc
    6ba4:	e2001c7f 	and	r1, r0, #32512	@ 0x7f00
    6ba8:	e28f4e12 	add	r4, pc, #288	@ 0x120
    6bac:	e1a01321 	lsr	r1, r1, #6
    6bb0:	e7943001 	ldr	r3, [r4, r1]
    6bb4:	e5823004 	str	r3, [r2, #4]
    6bb8:	e8bd8000 	ldmfd	sp!, {pc}
    6bbc:	e2822030 	add	r2, r2, #48	@ 0x30
    6bc0:	e2533001 	subs	r3, r3, #1
    6bc4:	1affffec 	bne	0x6b7c
    6bc8:	e8bd8000 	ldmfd	sp!, {pc}
    6bcc:	e8bd8000 	ldmfd	sp!, {pc}
    6bd0:	6d3aa3d7 	ldcvs	3, cr10, [sl, #-860]!	@ 0xfffffca4
    6bd4:	418951eb 	orrmi	r5, r9, fp, ror #3
    6bd8:	2ecf369d 	mcrcs	6, 6, r3, cr15, cr13, {4}
    6bdc:	246828f5 	strbtcs	r2, [r8], #-2293	@ 0xfffff70b
    6be0:	1dca20c4 	stclne	0, cr2, [sl, #784]	@ 0x310
    6be4:	19341b4e 	ldmdbne	r4!, {r1, r2, r3, r6, r8, r9, fp, ip}
    6be8:	15d81767 	ldrbne	r1, [r8, #1895]	@ 0x767
    6bec:	1346147a 	movtne	r1, #25722	@ 0x647a
    6bf0:	113f1234 	teqne	pc, r4, lsr r2	@ <UNPREDICTABLE>
    6bf4:	0f9a1062 	svceq	0x009a1062
    6bf8:	0e3f0ee5 	cdpeq	14, 3, cr0, cr15, cr5, {7}
    6bfc:	0d1b0da7 	ldceq	13, cr0, [fp, #-668]	@ 0xfffffd64
    6c00:	0c220c9a 	stceq	12, cr0, [r2], #-616	@ 0xfffffd98
    6c04:	0b4c0bb3 	bleq	0x1309ad8
    6c08:	0a920aec 	beq	0xfe4897c0
    6c0c:	09ee0a3d 	stmibeq	lr!, {r0, r2, r3, r4, r5, r9, fp}^
    6c10:	095c09a3 	ldmdbeq	ip, {r0, r1, r5, r7, r8, fp}^
    6c14:	08db091a 	ldmeq	fp, {r1, r3, r4, r8, fp}^
    6c18:	0866089f 	stmdaeq	r6!, {r0, r1, r2, r3, r4, r7, fp}^
    6c1c:	07fe0831 			@ <UNDEFINED> instruction: 0x07fe0831
    6c20:	079e07cd 	ldreq	r0, [lr, sp, asr #15]
    6c24:	07480772 	smlsldxeq	r0, r8, r2, r7
    6c28:	06f8071f 	usateq	r0, #24, pc, lsl #14	@ <UNPREDICTABLE>
    6c2c:	06af06d3 	ssateq	r0, #16, r3, asr #13
    6c30:	066c068d 	strbteq	r0, [ip], -sp, lsl #13
    6c34:	062e064d 	strteq	r0, [lr], -sp, asr #12
    6c38:	05f50611 	ldrbeq	r0, [r5, #1553]!	@ 0x611
    6c3c:	05bf05d9 	ldreq	r0, [pc, #1497]!	@ 0x721d
    6c40:	058d05a6 	streq	r0, [sp, #1446]	@ 0x5a6
    6c44:	055f0576 	ldrbeq	r0, [pc, #-1398]	@ 0x66d6
    6c48:	05330549 	ldreq	r0, [r3, #-1353]!	@ 0xfffffab7
    6c4c:	050a051e 	streq	r0, [sl, #-1310]	@ 0xfffffae2
    6c50:	04e404f7 	strbteq	r0, [r4], #1271	@ 0x4f7
    6c54:	04bf04d1 	ldrteq	r0, [pc], #1233	@ 0x6c5c
    6c58:	049d04ae 	ldreq	r0, [sp], #1198	@ 0x4ae
    6c5c:	047d048d 	ldrbteq	r0, [sp], #-1165	@ 0xfffffb73
    6c60:	045e046d 	ldrbeq	r0, [lr], #-1133	@ 0xfffffb93
    6c64:	0441044f 	strbeq	r0, [r1], #-1103	@ 0xfffffbb1
    6c68:	04250433 	strteq	r0, [r5], #-1075	@ 0xfffffbcd
    6c6c:	040b0418 	streq	r0, [fp], #-1048	@ 0xfffffbe8
    6c70:	03f203ff 	mvnseq	r0, #-67108861	@ 0xfc000003
    6c74:	03da03e6 	bicseq	r0, sl, #-1744830461	@ 0x98000003
    6c78:	03c403cf 	biceq	r0, r4, #1006632963	@ 0x3c000003
    6c7c:	03ae03b9 			@ <UNDEFINED> instruction: 0x03ae03b9
    6c80:	039903a4 	orrseq	r0, r9, #164, 6	@ 0x90000002
    6c84:	0386038f 	orreq	r0, r6, #1006632962	@ 0x3c000002
    6c88:	0373037c 	cmneq	r3, #124, 6	@ 0xf0000001
    6c8c:	03600369 	cmneq	r0, #-1543503871	@ 0xa4000001
    6c90:	034f0357 	movteq	r0, #62295	@ 0xf357
    6c94:	033e0346 	teqeq	lr, #402653185	@ 0x18000001
    6c98:	032e0336 			@ <UNDEFINED> instruction: 0x032e0336
    6c9c:	031e0326 	tsteq	lr, #-1744830464	@ 0x98000000
    6ca0:	030f0317 	movweq	r0, #62231	@ 0xf317
    6ca4:	03010308 	movweq	r0, #4872	@ 0x1308
    6ca8:	02f302fa 	rscseq	r0, r3, #-1610612721	@ 0xa000000f
    6cac:	02e602ec 	rsceq	r0, r6, #236, 4	@ 0xc000000e
    6cb0:	02d902df 	sbcseq	r0, r9, #-268435443	@ 0xf000000d
    6cb4:	02cc02d3 	sbceq	r0, ip, #805306381	@ 0x3000000d
    6cb8:	02c002c6 	sbceq	r0, r0, #1610612748	@ 0x6000000c
    6cbc:	02b502bb 	adcseq	r0, r5, #-1342177269	@ 0xb000000b
    6cc0:	02aa02af 	adceq	r0, sl, #-268435446	@ 0xf000000a
    6cc4:	029f02a4 	addseq	r0, pc, #164, 4	@ 0x4000000a
    6cc8:	02940299 	addseq	r0, r4, #-1879048183	@ 0x90000009
    6ccc:	028a028f 	addeq	r0, sl, #-268435448	@ 0xf0000008
    6cd0:	00000001 	andeq	r0, r0, r1
    6cd4:	00000400 	andeq	r0, r0, r0, lsl #8
    6cd8:	00000800 	andeq	r0, r0, r0, lsl #16
    6cdc:	00000c00 	andeq	r0, r0, r0, lsl #24
    6ce0:	00001000 	andeq	r1, r0, r0
    6ce4:	00001400 	andeq	r1, r0, r0, lsl #8
    6ce8:	00001800 	andeq	r1, r0, r0, lsl #16
    6cec:	00001c00 	andeq	r1, r0, r0, lsl #24
    6cf0:	00002000 	andeq	r2, r0, r0
    6cf4:	00002400 	andeq	r2, r0, r0, lsl #8
    6cf8:	00002800 	andeq	r2, r0, r0, lsl #16
    6cfc:	00002c00 	andeq	r2, r0, r0, lsl #24
    6d00:	00003000 	andeq	r3, r0, r0
    6d04:	00003400 	andeq	r3, r0, r0, lsl #8
    6d08:	00003800 	andeq	r3, r0, r0, lsl #16
    6d0c:	00003c00 	andeq	r3, r0, r0, lsl #24
    6d10:	00004000 	andeq	r4, r0, r0
    6d14:	00004400 	andeq	r4, r0, r0, lsl #8
    6d18:	00004800 	andeq	r4, r0, r0, lsl #16
    6d1c:	00004c00 	andeq	r4, r0, r0, lsl #24
    6d20:	00005000 	andeq	r5, r0, r0
    6d24:	00005400 	andeq	r5, r0, r0, lsl #8
    6d28:	00005800 	andeq	r5, r0, r0, lsl #16
    6d2c:	00005c00 	andeq	r5, r0, r0, lsl #24
    6d30:	00006000 	andeq	r6, r0, r0
    6d34:	00006400 	andeq	r6, r0, r0, lsl #8
    6d38:	00006800 	andeq	r6, r0, r0, lsl #16
    6d3c:	00006c00 	andeq	r6, r0, r0, lsl #24
    6d40:	00007000 	andeq	r7, r0, r0
    6d44:	00007400 	andeq	r7, r0, r0, lsl #8
    6d48:	00007800 	andeq	r7, r0, r0, lsl #16
    6d4c:	00007c00 	andeq	r7, r0, r0, lsl #24
    6d50:	00008000 	andeq	r8, r0, r0
    6d54:	00008400 	andeq	r8, r0, r0, lsl #8
    6d58:	00008800 	andeq	r8, r0, r0, lsl #16
    6d5c:	00008c00 	andeq	r8, r0, r0, lsl #24
    6d60:	00009000 	andeq	r9, r0, r0
    6d64:	00009400 	andeq	r9, r0, r0, lsl #8
    6d68:	00009800 	andeq	r9, r0, r0, lsl #16
    6d6c:	00009c00 	andeq	r9, r0, r0, lsl #24
    6d70:	0000a000 	andeq	sl, r0, r0
    6d74:	0000a400 	andeq	sl, r0, r0, lsl #8
    6d78:	0000a800 	andeq	sl, r0, r0, lsl #16
    6d7c:	0000ac00 	andeq	sl, r0, r0, lsl #24
    6d80:	0000b000 	andeq	fp, r0, r0
    6d84:	0000b400 	andeq	fp, r0, r0, lsl #8
    6d88:	0000b800 	andeq	fp, r0, r0, lsl #16
    6d8c:	0000bc00 	andeq	fp, r0, r0, lsl #24
    6d90:	0000c000 	andeq	ip, r0, r0
    6d94:	0000c400 	andeq	ip, r0, r0, lsl #8
    6d98:	0000c800 	andeq	ip, r0, r0, lsl #16
    6d9c:	0000cc00 	andeq	ip, r0, r0, lsl #24
    6da0:	0000d000 	andeq	sp, r0, r0
    6da4:	0000d400 	andeq	sp, r0, r0, lsl #8
    6da8:	0000d800 	andeq	sp, r0, r0, lsl #16
    6dac:	0000dc00 	andeq	sp, r0, r0, lsl #24
    6db0:	0000e000 	andeq	lr, r0, r0
    6db4:	0000e400 	andeq	lr, r0, r0, lsl #8
    6db8:	0000e800 	andeq	lr, r0, r0, lsl #16
    6dbc:	0000ec00 	andeq	lr, r0, r0, lsl #24
    6dc0:	0000f000 	andeq	pc, r0, r0
    6dc4:	0000f400 	andeq	pc, r0, r0, lsl #8
    6dc8:	0000f800 	andeq	pc, r0, r0, lsl #16
    6dcc:	0000fc00 	andeq	pc, r0, r0, lsl #24
    6dd0:	00010000 	andeq	r0, r1, r0
    6dd4:	00010400 	andeq	r0, r1, r0, lsl #8
    6dd8:	00010800 	andeq	r0, r1, r0, lsl #16
    6ddc:	00010c00 	andeq	r0, r1, r0, lsl #24
    6de0:	00011000 	andeq	r1, r1, r0
    6de4:	00011400 	andeq	r1, r1, r0, lsl #8
    6de8:	00011800 	andeq	r1, r1, r0, lsl #16
    6dec:	00011c00 	andeq	r1, r1, r0, lsl #24
    6df0:	00012000 	andeq	r2, r1, r0
    6df4:	00012400 	andeq	r2, r1, r0, lsl #8
    6df8:	00012800 	andeq	r2, r1, r0, lsl #16
    6dfc:	00012c00 	andeq	r2, r1, r0, lsl #24
    6e00:	00013000 	andeq	r3, r1, r0
    6e04:	00013400 	andeq	r3, r1, r0, lsl #8
    6e08:	00013800 	andeq	r3, r1, r0, lsl #16
    6e0c:	00013c00 	andeq	r3, r1, r0, lsl #24
    6e10:	00014000 	andeq	r4, r1, r0
    6e14:	00014400 	andeq	r4, r1, r0, lsl #8
    6e18:	00014800 	andeq	r4, r1, r0, lsl #16
    6e1c:	00014c00 	andeq	r4, r1, r0, lsl #24
    6e20:	00015000 	andeq	r5, r1, r0
    6e24:	00015400 	andeq	r5, r1, r0, lsl #8
    6e28:	00015800 	andeq	r5, r1, r0, lsl #16
    6e2c:	00015c00 	andeq	r5, r1, r0, lsl #24
    6e30:	00016000 	andeq	r6, r1, r0
    6e34:	00016400 	andeq	r6, r1, r0, lsl #8
    6e38:	00016800 	andeq	r6, r1, r0, lsl #16
    6e3c:	00016c00 	andeq	r6, r1, r0, lsl #24
    6e40:	00017000 	andeq	r7, r1, r0
    6e44:	00017400 	andeq	r7, r1, r0, lsl #8
    6e48:	00017800 	andeq	r7, r1, r0, lsl #16
    6e4c:	00017c00 	andeq	r7, r1, r0, lsl #24
    6e50:	00018000 	andeq	r8, r1, r0
    6e54:	00018400 	andeq	r8, r1, r0, lsl #8
    6e58:	00018800 	andeq	r8, r1, r0, lsl #16
    6e5c:	00018c00 	andeq	r8, r1, r0, lsl #24
    6e60:	00019000 	andeq	r9, r1, r0
    6e64:	00019400 	andeq	r9, r1, r0, lsl #8
    6e68:	00019800 	andeq	r9, r1, r0, lsl #16
    6e6c:	00019c00 	andeq	r9, r1, r0, lsl #24
    6e70:	0001a000 	andeq	sl, r1, r0
    6e74:	0001a400 	andeq	sl, r1, r0, lsl #8
    6e78:	0001a800 	andeq	sl, r1, r0, lsl #16
    6e7c:	0001ac00 	andeq	sl, r1, r0, lsl #24
    6e80:	0001b000 	andeq	fp, r1, r0
    6e84:	0001b400 	andeq	fp, r1, r0, lsl #8
    6e88:	0001b800 	andeq	fp, r1, r0, lsl #16
    6e8c:	0001bc00 	andeq	fp, r1, r0, lsl #24
    6e90:	0001c000 	andeq	ip, r1, r0
    6e94:	0001c400 	andeq	ip, r1, r0, lsl #8
    6e98:	0001c800 	andeq	ip, r1, r0, lsl #16
    6e9c:	0001cc00 	andeq	ip, r1, r0, lsl #24
    6ea0:	0001d000 	andeq	sp, r1, r0
    6ea4:	0001d400 	andeq	sp, r1, r0, lsl #8
    6ea8:	0001d800 	andeq	sp, r1, r0, lsl #16
    6eac:	0001dc00 	andeq	sp, r1, r0, lsl #24
    6eb0:	0001e000 	andeq	lr, r1, r0
    6eb4:	0001e400 	andeq	lr, r1, r0, lsl #8
    6eb8:	0001e800 	andeq	lr, r1, r0, lsl #16
    6ebc:	0001ec00 	andeq	lr, r1, r0, lsl #24
    6ec0:	0001f000 	andeq	pc, r1, r0
    6ec4:	0001f400 	andeq	pc, r1, r0, lsl #8
    6ec8:	0001f800 	andeq	pc, r1, r0, lsl #16
    6ecc:	0001fc00 	andeq	pc, r1, r0, lsl #24
    6ed0:	e28f1c6d 	add	r1, pc, #27904	@ 0x6d00
    6ed4:	e2811028 	add	r1, r1, #40	@ 0x28
    6ed8:	e3a07000 	mov	r7, #0
    6edc:	e5912000 	ldr	r2, [r1]
    6ee0:	e1b02002 	movs	r2, r2
    6ee4:	0a000009 	beq	0x6f10
    6ee8:	e592302c 	ldr	r3, [r2, #44]	@ 0x2c
    6eec:	e0822003 	add	r2, r2, r3
    6ef0:	e1a03002 	mov	r3, r2
    6ef4:	e4d34004 	ldrb	r4, [r3], #4
    6ef8:	e4935004 	ldr	r5, [r3], #4
    6efc:	e1a06825 	lsr	r6, r5, #16
    6f00:	e1560820 	cmp	r6, r0, lsr #16
    6f04:	0a000006 	beq	0x6f24
    6f08:	e2544001 	subs	r4, r4, #1
    6f0c:	5afffff9 	bpl	0x6ef8
    6f10:	e2811020 	add	r1, r1, #32
    6f14:	e2877001 	add	r7, r7, #1
    6f18:	e3570008 	cmp	r7, #8
    6f1c:	1affffee 	bne	0x6edc
    6f20:	e8bd8000 	ldmfd	sp!, {pc}
    6f24:	e3c554ff 	bic	r5, r5, #-16777216	@ 0xff000000
    6f28:	e3c558ff 	bic	r5, r5, #16711680	@ 0xff0000
    6f2c:	e0823005 	add	r3, r2, r5
    6f30:	e4d34004 	ldrb	r4, [r3], #4
    6f34:	e2005cff 	and	r5, r0, #65280	@ 0xff00
    6f38:	e1540425 	cmp	r4, r5, lsr #8
    6f3c:	3afffff7 	bcc	0x6f20
    6f40:	e7931325 	ldr	r1, [r3, r5, lsr #6]
    6f44:	e1b01001 	movs	r1, r1
    6f48:	0afffff4 	beq	0x6f20
    6f4c:	e0821001 	add	r1, r2, r1
    6f50:	e28f2c76 	add	r2, pc, #30208	@ 0x7600
    6f54:	e2822040 	add	r2, r2, #64	@ 0x40
    6f58:	e3a03010 	mov	r3, #16
    6f5c:	e5d14000 	ldrb	r4, [r1]
    6f60:	e0266006 	eor	r6, r6, r6
    6f64:	e3140080 	tst	r4, #128	@ 0x80
    6f68:	0a00003a 	beq	0x7058
    6f6c:	e3a0a080 	mov	sl, #128	@ 0x80
    6f70:	e5f15001 	ldrb	r5, [r1, #1]!
    6f74:	e3150080 	tst	r5, #128	@ 0x80
    6f78:	1a000027 	bne	0x701c
    6f7c:	e3140010 	tst	r4, #16
    6f80:	1a00000a 	bne	0x6fb0
    6f84:	e5d26000 	ldrb	r6, [r2]
    6f88:	e1b06006 	movs	r6, r6
    6f8c:	0a000003 	beq	0x6fa0
    6f90:	e5d26028 	ldrb	r6, [r2, #40]	@ 0x28
    6f94:	e1550006 	cmp	r5, r6
    6f98:	1a000000 	bne	0x6fa0
    6f9c:	e3a0a0a0 	mov	sl, #160	@ 0xa0
    6fa0:	e2822030 	add	r2, r2, #48	@ 0x30
    6fa4:	e2533001 	subs	r3, r3, #1
    6fa8:	1afffff5 	bne	0x6f84
    6fac:	ea000017 	b	0x7010
    6fb0:	e204600f 	and	r6, r4, #15
    6fb4:	e5d28000 	ldrb	r8, [r2]
    6fb8:	e1b08008 	movs	r8, r8
    6fbc:	0a000010 	beq	0x7004
    6fc0:	e5d29028 	ldrb	r9, [r2, #40]	@ 0x28
    6fc4:	e5d2b001 	ldrb	fp, [r2, #1]
    6fc8:	e31b0080 	tst	fp, #128	@ 0x80
    6fcc:	0a000009 	beq	0x6ff8
    6fd0:	e20bb00f 	and	fp, fp, #15
    6fd4:	e156000b 	cmp	r6, fp
    6fd8:	1a000006 	bne	0x6ff8
    6fdc:	e1550009 	cmp	r5, r9
    6fe0:	1a000001 	bne	0x6fec
    6fe4:	e3180020 	tst	r8, #32
    6fe8:	0a000004 	beq	0x7000
    6fec:	e0288008 	eor	r8, r8, r8
    6ff0:	e5c28000 	strb	r8, [r2]
    6ff4:	ea000002 	b	0x7004
    6ff8:	e1550009 	cmp	r5, r9
    6ffc:	1a000000 	bne	0x7004
    7000:	e3a0a0a0 	mov	sl, #160	@ 0xa0
    7004:	e2822030 	add	r2, r2, #48	@ 0x30
    7008:	e2533001 	subs	r3, r3, #1
    700c:	1affffe8 	bne	0x6fb4
    7010:	e2811001 	add	r1, r1, #1
    7014:	e4d16001 	ldrb	r6, [r1], #1
    7018:	ea000039 	b	0x7104
    701c:	e0255005 	eor	r5, r5, r5
    7020:	e3140010 	tst	r4, #16
    7024:	0a000036 	beq	0x7104
    7028:	e204b00f 	and	fp, r4, #15
    702c:	e5d29000 	ldrb	r9, [r2]
    7030:	e1b09009 	movs	r9, r9
    7034:	0a000003 	beq	0x7048
    7038:	e5d29001 	ldrb	r9, [r2, #1]
    703c:	e209900f 	and	r9, r9, #15
    7040:	e159000b 	cmp	r9, fp
    7044:	0a000041 	beq	0x7150
    7048:	e2822030 	add	r2, r2, #48	@ 0x30
    704c:	e2533001 	subs	r3, r3, #1
    7050:	1afffff5 	bne	0x702c
    7054:	ea00002a 	b	0x7104
    7058:	e3a0a090 	mov	sl, #144	@ 0x90
    705c:	e2818001 	add	r8, r1, #1
    7060:	e4d85001 	ldrb	r5, [r8], #1
    7064:	e1b05005 	movs	r5, r5
    7068:	02888002 	addeq	r8, r8, #2
    706c:	0a000018 	beq	0x70d4
    7070:	e5d26000 	ldrb	r6, [r2]
    7074:	e1b06006 	movs	r6, r6
    7078:	0a000010 	beq	0x70c0
    707c:	e5d29028 	ldrb	r9, [r2, #40]	@ 0x28
    7080:	e5d2b002 	ldrb	fp, [r2, #2]
    7084:	e157000b 	cmp	r7, fp
    7088:	1a000009 	bne	0x70b4
    708c:	e5d2b001 	ldrb	fp, [r2, #1]
    7090:	e31b0080 	tst	fp, #128	@ 0x80
    7094:	1a000006 	bne	0x70b4
    7098:	e1550009 	cmp	r5, r9
    709c:	1a000001 	bne	0x70a8
    70a0:	e3160020 	tst	r6, #32
    70a4:	0a000004 	beq	0x70bc
    70a8:	e0266006 	eor	r6, r6, r6
    70ac:	e5c26000 	strb	r6, [r2]
    70b0:	ea000002 	b	0x70c0
    70b4:	e1550009 	cmp	r5, r9
    70b8:	1a000000 	bne	0x70c0
    70bc:	e3a0a0b0 	mov	sl, #176	@ 0xb0
    70c0:	e2822030 	add	r2, r2, #48	@ 0x30
    70c4:	e2533001 	subs	r3, r3, #1
    70c8:	1affffe8 	bne	0x7070
    70cc:	e4d86002 	ldrb	r6, [r8], #2
    70d0:	ea00000b 	b	0x7104
    70d4:	e5d29000 	ldrb	r9, [r2]
    70d8:	e1b09009 	movs	r9, r9
    70dc:	0a000005 	beq	0x70f8
    70e0:	e5d29001 	ldrb	r9, [r2, #1]
    70e4:	e3190080 	tst	r9, #128	@ 0x80
    70e8:	1a000002 	bne	0x70f8
    70ec:	e5d29002 	ldrb	r9, [r2, #2]
    70f0:	e1570009 	cmp	r7, r9
    70f4:	0a000015 	beq	0x7150
    70f8:	e2822030 	add	r2, r2, #48	@ 0x30
    70fc:	e2533001 	subs	r3, r3, #1
    7100:	1afffff3 	bne	0x70d4
    7104:	e28f2c74 	add	r2, pc, #116, 24	@ 0x7400
    7108:	e282208c 	add	r2, r2, #140	@ 0x8c
    710c:	e3a03010 	mov	r3, #16
    7110:	e5d29000 	ldrb	r9, [r2]
    7114:	e1b09009 	movs	r9, r9
    7118:	0a00000c 	beq	0x7150
    711c:	e2822030 	add	r2, r2, #48	@ 0x30
    7120:	e2533001 	subs	r3, r3, #1
    7124:	1afffff9 	bne	0x7110
    7128:	e28f2c74 	add	r2, pc, #116, 24	@ 0x7400
    712c:	e2822068 	add	r2, r2, #104	@ 0x68
    7130:	e3a03010 	mov	r3, #16
    7134:	e5d29001 	ldrb	r9, [r2, #1]
    7138:	e3190080 	tst	r9, #128	@ 0x80
    713c:	1a000003 	bne	0x7150
    7140:	e2822030 	add	r2, r2, #48	@ 0x30
    7144:	e2533001 	subs	r3, r3, #1
    7148:	1afffff9 	bne	0x7134
    714c:	eafffffe 	b	0x714c
    7150:	e5c24001 	strb	r4, [r2, #1]
    7154:	e5c27002 	strb	r7, [r2, #2]
    7158:	e3a03801 	mov	r3, #65536	@ 0x10000
    715c:	e5823004 	str	r3, [r2, #4]
    7160:	e3c0320f 	bic	r3, r0, #-268435456	@ 0xf0000000
    7164:	e5823008 	str	r3, [r2, #8]
    7168:	e0233003 	eor	r3, r3, r3
    716c:	e5823014 	str	r3, [r2, #20]
    7170:	e5c25028 	strb	r5, [r2, #40]	@ 0x28
    7174:	e5c26029 	strb	r6, [r2, #41]	@ 0x29
    7178:	e5c2a000 	strb	sl, [r2]
    717c:	e3140080 	tst	r4, #128	@ 0x80
    7180:	1a000018 	bne	0x71e8
    7184:	e582100c 	str	r1, [r2, #12]
    7188:	e5828010 	str	r8, [r2, #16]
    718c:	e28f3064 	add	r3, pc, #100	@ 0x64
    7190:	e5823018 	str	r3, [r2, #24]
    7194:	e28f1c76 	add	r1, pc, #30208	@ 0x7600
    7198:	e28110fc 	add	r1, r1, #252	@ 0xfc
    719c:	e5913004 	ldr	r3, [r1, #4]
    71a0:	e1b03003 	movs	r3, r3
    71a4:	0a00000b 	beq	0x71d8
    71a8:	e5d14000 	ldrb	r4, [r1]
    71ac:	e1540007 	cmp	r4, r7
    71b0:	1a000008 	bne	0x71d8
    71b4:	e5d24000 	ldrb	r4, [r2]
    71b8:	e2244018 	eor	r4, r4, #24
    71bc:	e5c24000 	strb	r4, [r2]
    71c0:	e5823020 	str	r3, [r2, #32]
    71c4:	e0233003 	eor	r3, r3, r3
    71c8:	e582301c 	str	r3, [r2, #28]
    71cc:	e5823024 	str	r3, [r2, #36]	@ 0x24
    71d0:	e5813004 	str	r3, [r1, #4]
    71d4:	eafffc5a 	b	0x6344
    71d8:	e3a0387f 	mov	r3, #8323072	@ 0x7f0000
    71dc:	e582301c 	str	r3, [r2, #28]
    71e0:	e5823024 	str	r3, [r2, #36]	@ 0x24
    71e4:	eafffc56 	b	0x6344
    71e8:	e3a034ff 	mov	r3, #-16777216	@ 0xff000000
    71ec:	e5823010 	str	r3, [r2, #16]
    71f0:	e5821018 	str	r1, [r2, #24]
    71f4:	eafffc52 	b	0x6344
    71f8:	ffffffff 			@ <UNDEFINED> instruction: 0xffffffff
    71fc:	75716553 	ldrbvc	r6, [r1, #-1363]!	@ 0xfffffaad
    7200:	65636e65 	strbvs	r6, [r3, #-3685]!	@ 0xfffff19b
    7204:	2e312072 	mrccs	0, 1, r2, cr1, cr2, {3}
    7208:	30203333 	eorcc	r3, r0, r3, lsr r3
    720c:	35302f30 	ldrcc	r2, [r0, #-3888]!	@ 0xfffff0d0
    7210:	2032302f 	eorscs	r3, r2, pc, lsr #32
    7214:	61542e59 	cmpvs	r4, r9, asr lr
    7218:	6164656b 	cmnvs	r4, fp, ror #10
    721c:	150e0700 	strne	r0, [lr, #-1792]	@ 0xfffff900
    7220:	322b241c 	eorcc	r2, fp, #28, 8	@ 0x1c000000
    7224:	4b474039 	blmi	0x11d7310
    7228:	5a56524f 	bpl	0x159bb6c
    722c:	6965615e 	stmdbvs	r5!, {r1, r2, r3, r4, r6, r8, sp, lr}^
    7230:	7874706d 	ldmdavc	r4!, {r0, r2, r3, r5, r6, ip, sp, lr}^
    7234:	827f7d7a 	rsbshi	r7, pc, #7808	@ 0x1e80
    7238:	8c898784 	stchi	7, cr8, [r9], {132}	@ 0x84
    723c:	9693918e 	ldrls	r9, [r3], lr, lsl #3
    7240:	9f9d9b98 	svcls	0x009d9b98
    7244:	a9a7a4a2 	stmibge	r7!, {r1, r5, r7, sl, sp, pc}
    7248:	b1b0aead 	lsrslt	sl, sp, #29
    724c:	b7b5b4b3 			@ <UNDEFINED> instruction: 0xb7b5b4b3
    7250:	bdbbbab8 			@ <UNDEFINED> instruction: 0xbdbbbab8
    7254:	c2c1bfbe 	sbcgt	fp, r1, #760	@ 0x2f8
    7258:	c8c6c5c4 	stmiagt	r6, {r2, r6, r7, r8, sl, lr, pc}^
    725c:	cdcccbc9 	vstrgt	d28, [ip, #804]	@ 0x324
    7260:	d3d2d1cf 	bicsle	sp, r2, #-1073741773	@ 0xc0000033
    7264:	d8d6d5d4 	ldmle	r6, {r2, r4, r6, r7, r8, sl, ip, lr, pc}^
    7268:	dcdbdad9 	vldmiale	fp, {s27-s243}
    726c:	e0dfdedd 	ldrsb	sp, [pc], #237	@ <UNPREDICTABLE>
    7270:	e5e4e3e1 	strb	lr, [r4, #993]!	@ 0x3e1
    7274:	e9e8e7e6 	stmib	r8!, {r1, r2, r5, r6, r7, r8, r9, sl, sp, lr, pc}^
    7278:	eeedebea 	vfms.f64	d30, d29, d26
    727c:	f0efefee 			@ <UNDEFINED> instruction: 0xf0efefee
    7280:	f2f1f1f0 	vsra.s64	<illegal reg q15.5>, q8, #15
    7284:	f4f4f3f3 			@ <UNDEFINED> instruction: 0xf4f4f3f3
    7288:	f7f6f5f5 			@ <UNDEFINED> instruction: 0xf7f6f5f5
    728c:	f9f8f8f7 			@ <UNDEFINED> instruction: 0xf9f8f8f7
    7290:	fbfbfaf9 	blx	0xfff05e7e
    7294:	fdfdfcfc 	ldc2l	12, cr15, [sp, #1008]!	@ 0x3f0
    7298:	fefefefe 	mrc2	14, 7, pc, cr14, cr14, {7}
    729c:	0e240e00 	cdpeq	14, 2, cr0, cr4, cr0, {0}
    72a0:	0e6c0e48 	cdpeq	14, 6, cr0, cr12, cr8, {2}
    72a4:	0eb40e90 	mrceq	14, 5, r0, cr4, cr0, {4}
    72a8:	0efc0ed8 	mrceq	14, 7, r0, cr12, cr8, {6}
    72ac:	0f440f20 	svceq	0x00440f20
    72b0:	0f8c0f68 	svceq	0x008c0f68
    72b4:	0fd40fb0 	svceq	0x00d40fb0
    72b8:	101c0ff8 			@ <UNDEFINED> instruction: 0x101c0ff8
    72bc:	10641040 	rsbne	r1, r4, r0, asr #32
    72c0:	10ac1088 	adcne	r1, ip, r8, lsl #1
    72c4:	10f410d0 	ldrsbtne	r1, [r4], #0
    72c8:	113c1118 	teqne	ip, r8, lsl r1
    72cc:	11841160 	orrne	r1, r4, r0, ror #2
    72d0:	11cc11a8 	bicne	r1, ip, r8, lsr #3
    72d4:	121411f0 	andsne	r1, r4, #240, 2	@ 0x3c
    72d8:	125c1238 	subsne	r1, ip, #56, 4	@ 0x80000003
    72dc:	12a41280 	adcne	r1, r4, #128, 4
    72e0:	12ec12c8 	rscne	r1, ip, #200, 4	@ 0x8000000c
    72e4:	13341310 	teqne	r4, #16, 6	@ 0x40000000
    72e8:	137c1358 	cmnne	ip, #88, 6	@ 0x60000001
    72ec:	13c413a0 	bicne	r1, r4, #160, 6	@ 0x80000002
    72f0:	140c13e8 	strne	r1, [ip], #-1000	@ 0xfffffc18
    72f4:	14541430 	ldrbne	r1, [r4], #-1072	@ 0xfffffbd0
    72f8:	149c1478 	ldrne	r1, [ip], #1144	@ 0x478
    72fc:	14e414c0 	strbtne	r1, [r4], #1216	@ 0x4c0

/* === DATA REGION: AICA channel register tables (0x7300-0x73a0) ===
 * The four addresses in the dispatch table (0x7330, 0x7354, 0x7364, 0x7370)
 * point INTO this data region.  Decoding as ARM code produces garbage.
 * Exact role TBD — likely per-voice AICA pitch/rate lookup tables. */
    7300:	152c1508 	strne	r1, [ip, #-1288]!	@ 0xfffffaf8
    7304:	15741550 	ldrbne	r1, [r4, #-1360]!	@ 0xfffffab0
    7308:	15bc1598 	ldrne	r1, [ip, #1432]!	@ 0x598
    730c:	160415e0 	strne	r1, [r4], -r0, ror #11
    7310:	164c1628 	strbne	r1, [ip], -r8, lsr #12
    7314:	16941670 			@ <UNDEFINED> instruction: 0x16941670
    7318:	16dc16b8 			@ <UNDEFINED> instruction: 0x16dc16b8
    731c:	17241700 	strne	r1, [r4, -r0, lsl #14]!
    7320:	176c1748 	strbne	r1, [ip, -r8, asr #14]!
    7324:	17b41790 			@ <UNDEFINED> instruction: 0x17b41790
    7328:	17fc17d8 	ubfxne	r1, r8, #15, #29
    732c:	18441820 	stmdane	r4, {r5, fp, ip}^
    7330:	188c1868 	stmne	ip, {r3, r5, r6, fp, ip}
    7334:	18d418b0 	ldmne	r4, {r4, r5, r7, fp, ip}^
    7338:	191c18f8 	ldmdbne	ip, {r3, r4, r5, r6, r7, fp, ip}
    733c:	19641940 	stmdbne	r4!, {r6, r8, fp, ip}^
    7340:	19ac1988 	stmibne	ip!, {r3, r7, r8, fp, ip}
    7344:	19f419d0 	ldmibne	r4!, {r4, r6, r7, r8, fp, ip}^
    7348:	1a3c1a18 	bne	0xf0dbb0
    734c:	1a841a60 	bne	0xfe10dcd4
    7350:	1acc1aa8 	bne	0xff30ddf8
    7354:	1b141af0 	blne	0x50df1c
    7358:	1b5c1b38 	blne	0x170e040
    735c:	1ba41b80 	blne	0xfe90e164
    7360:	1bec1bc8 	blne	0xffb0e288
    7364:	1c341c10 	ldcne	12, cr1, [r4], #-64	@ 0xffffffc0
    7368:	1c7c1c58 	ldclne	12, cr1, [ip], #-352	@ 0xfffffea0
    736c:	1cc41ca0 	stclne	12, cr1, [r4], {160}	@ 0xa0
    7370:	1d0c1ce8 	stcne	12, cr1, [ip, #-928]	@ 0xfffffc60
    7374:	1d541d30 	ldclne	13, cr1, [r4, #-192]	@ 0xffffff40
    7378:	1d9c1d78 	ldcne	13, cr1, [ip, #480]	@ 0x1e0
    737c:	1de41dc0 	stclne	13, cr1, [r4, #768]!	@ 0x300
    7380:	1e2c1e08 	cdpne	14, 2, cr1, cr12, cr8, {0}
    7384:	1e741e50 	mrcne	14, 3, r1, cr4, cr0, {2}
    7388:	1ebc1e98 	mrcne	14, 5, r1, cr12, cr8, {4}
    738c:	1f041ee0 	svcne	0x00041ee0
    7390:	1f4c1f28 	svcne	0x004c1f28
    7394:	1f941f70 	svcne	0x00941f70
    7398:	1fdc1fb8 	svcne	0x00dc1fb8
    739c:	00000007 	andeq	r0, r0, r7

/* === DATA: ADSR / envelope coefficient tables */
    73a0:	00ff0111 	rscseq	r0, pc, r1, lsl r1	@ <UNPREDICTABLE>
	...
    73b0:	00ff0414 	rscseq	r0, pc, r4, lsl r4	@ <UNPREDICTABLE>
	...
    73c0:	00ff0f1f 	rscseq	r0, pc, pc, lsl pc	@ <UNPREDICTABLE>
	...
    73d0:	04140818 	ldreq	r0, [r4], #-2072	@ 0xfffff7e8
    73d4:	000000ff 	strdeq	r0, [r0], -pc	@ <UNPREDICTABLE>
	...
    73e0:	0f080402 	svceq	0x00080402
    73e4:	00020408 	andeq	r0, r2, r8, lsl #8
    73e8:	1f181412 	svcne	0x00181412
    73ec:	00121418 	andseq	r1, r2, r8, lsl r4
    73f0:	0f080402 	svceq	0x00080402
    73f4:	1214181f 	andsne	r1, r4, #2031616	@ 0x1f0000
    73f8:	000000ff 	strdeq	r0, [r0], -pc	@ <UNPREDICTABLE>
    73fc:	00000000 	andeq	r0, r0, r0
    7400:	1f181412 	svcne	0x00181412
    7404:	0204080f 	andeq	r0, r4, #983040	@ 0xf0000
    7408:	000000ff 	strdeq	r0, [r0], -pc	@ <UNPREDICTABLE>
    740c:	00000000 	andeq	r0, r0, r0
    7410:	18021f08 	stmdane	r2, {r3, r8, r9, sl, fp, ip}
    7414:	00021408 	andeq	r1, r2, r8, lsl #8
    7418:	1f020814 	svcne	0x00020814
    741c:	18081204 	stmdane	r8, {r2, r9, ip}
    7420:	00010000 	andeq	r0, r1, r0
    7424:	00030002 	andeq	r0, r3, r2
    7428:	00050004 	andeq	r0, r5, r4
    742c:	00060006 	andeq	r0, r6, r6
    7430:	00080007 	andeq	r0, r8, r7
    7434:	000a0009 	andeq	r0, sl, r9
    7438:	000c000b 	andeq	r0, ip, fp
    743c:	000e000d 	andeq	r0, lr, sp
    7440:	0010000f 	andseq	r0, r0, pc
    7444:	00120011 	andseq	r0, r2, r1, lsl r0
    7448:	00140013 	andseq	r0, r4, r3, lsl r0
    744c:	00150015 	andseq	r0, r5, r5, lsl r0
    7450:	00170016 	andseq	r0, r7, r6, lsl r0
    7454:	00190018 	andseq	r0, r9, r8, lsl r0
    7458:	001b001a 	andseq	r0, fp, sl, lsl r0
    745c:	001d001c 	andseq	r0, sp, ip, lsl r0
    7460:	001f001e 	andseq	r0, pc, lr, lsl r0	@ <UNPREDICTABLE>
    7464:	00210020 	eoreq	r0, r1, r0, lsr #32
    7468:	00230022 	eoreq	r0, r3, r2, lsr #32
    746c:	00250024 	eoreq	r0, r5, r4, lsr #32
    7470:	00270026 	eoreq	r0, r7, r6, lsr #32
    7474:	00290028 	eoreq	r0, r9, r8, lsr #32
    7478:	002a0029 	eoreq	r0, sl, r9, lsr #32
    747c:	002c002b 	eoreq	r0, ip, fp, lsr #32
    7480:	002e002d 	eoreq	r0, lr, sp, lsr #32
    7484:	0030002f 	eorseq	r0, r0, pc, lsr #32
    7488:	00320031 	eorseq	r0, r2, r1, lsr r0
    748c:	00340033 	eorseq	r0, r4, r3, lsr r0
    7490:	00360035 	eorseq	r0, r6, r5, lsr r0
    7494:	00380037 	eorseq	r0, r8, r7, lsr r0
    7498:	003a0039 	eorseq	r0, sl, r9, lsr r0
    749c:	003c003b 	eorseq	r0, ip, fp, lsr r0
    74a0:	003e003d 	eorseq	r0, lr, sp, lsr r0
    74a4:	0040003f 	subeq	r0, r0, pc, lsr r0
    74a8:	00420041 	subeq	r0, r2, r1, asr #32
    74ac:	00440043 	subeq	r0, r4, r3, asr #32
    74b0:	00460045 	subeq	r0, r6, r5, asr #32
    74b4:	00480047 	subeq	r0, r8, r7, asr #32
    74b8:	004a0049 	subeq	r0, sl, r9, asr #32
    74bc:	004c004b 	subeq	r0, ip, fp, asr #32
    74c0:	004e004d 	subeq	r0, lr, sp, asr #32
    74c4:	0050004f 	subseq	r0, r0, pc, asr #32
    74c8:	00520051 	subseq	r0, r2, r1, asr r0
    74cc:	00540053 	subseq	r0, r4, r3, asr r0
    74d0:	00560055 	subseq	r0, r6, r5, asr r0
    74d4:	00580057 	subseq	r0, r8, r7, asr r0
    74d8:	005a0059 	subseq	r0, sl, r9, asr r0
    74dc:	005c005b 	subseq	r0, ip, fp, asr r0
    74e0:	005e005d 	subseq	r0, lr, sp, asr r0
    74e4:	0060005f 	rsbeq	r0, r0, pc, asr r0
    74e8:	00620061 	rsbeq	r0, r2, r1, rrx
    74ec:	00640063 	rsbeq	r0, r4, r3, rrx
    74f0:	00660065 	rsbeq	r0, r6, r5, rrx
    74f4:	00680067 	rsbeq	r0, r8, r7, rrx
    74f8:	006a0069 	rsbeq	r0, sl, r9, rrx
    74fc:	006c006b 	rsbeq	r0, ip, fp, rrx
    7500:	006e006d 	rsbeq	r0, lr, sp, rrx
    7504:	0070006f 	rsbseq	r0, r0, pc, rrx
    7508:	00720071 	rsbseq	r0, r2, r1, ror r0
    750c:	00740073 	rsbseq	r0, r4, r3, ror r0
    7510:	00760075 	rsbseq	r0, r6, r5, ror r0
    7514:	00780077 	rsbseq	r0, r8, r7, ror r0
    7518:	007a0079 	rsbseq	r0, sl, r9, ror r0
    751c:	007c007b 	rsbseq	r0, ip, fp, ror r0
    7520:	007e007d 	rsbseq	r0, lr, sp, ror r0
    7524:	0081007f 	addeq	r0, r1, pc, ror r0
    7528:	00830082 	addeq	r0, r3, r2, lsl #1
    752c:	00850084 	addeq	r0, r5, r4, lsl #1
    7530:	00870086 	addeq	r0, r7, r6, lsl #1
    7534:	00890088 	addeq	r0, r9, r8, lsl #1
    7538:	008b008a 	addeq	r0, fp, sl, lsl #1
    753c:	008d008c 	addeq	r0, sp, ip, lsl #1
    7540:	008f008e 	addeq	r0, pc, lr, lsl #1
    7544:	00910090 	umullseq	r0, r1, r0, r0
    7548:	00930092 	umullseq	r0, r3, r2, r0
    754c:	00960094 	umullseq	r0, r6, r4, r0
    7550:	00980097 	umullseq	r0, r8, r7, r0
    7554:	009a0099 	umullseq	r0, sl, r9, r0
    7558:	009c009b 	umullseq	r0, ip, fp, r0
    755c:	009e009d 	umullseq	r0, lr, sp, r0
    7560:	00a0009f 	umlaleq	r0, r0, pc, r0	@ <UNPREDICTABLE>
    7564:	00a200a1 	adceq	r0, r2, r1, lsr #1
    7568:	00a400a3 	adceq	r0, r4, r3, lsr #1
    756c:	00a700a6 	adceq	r0, r7, r6, lsr #1
    7570:	00a900a8 	adceq	r0, r9, r8, lsr #1
    7574:	00ab00aa 	adceq	r0, fp, sl, lsr #1
    7578:	00ad00ac 	adceq	r0, sp, ip, lsr #1
    757c:	00af00ae 	adceq	r0, pc, lr, lsr #1
    7580:	00b100b0 	ldrhteq	r0, [r1], r0
    7584:	00b400b2 	ldrhteq	r0, [r4], r2
    7588:	00b600b5 	ldrhteq	r0, [r6], r5
    758c:	00b800b7 	ldrhteq	r0, [r8], r7
    7590:	00ba00b9 	ldrhteq	r0, [sl], r9
    7594:	00bc00bb 	ldrhteq	r0, [ip], fp
    7598:	00be00bd 	ldrhteq	r0, [lr], sp
    759c:	00c100c0 	sbceq	r0, r1, r0, asr #1
    75a0:	00c300c2 	sbceq	r0, r3, r2, asr #1
    75a4:	00c500c4 	sbceq	r0, r5, r4, asr #1
    75a8:	00c700c6 	sbceq	r0, r7, r6, asr #1
    75ac:	00c900c8 	sbceq	r0, r9, r8, asr #1
    75b0:	00cc00cb 	sbceq	r0, ip, fp, asr #1
    75b4:	00ce00cd 	sbceq	r0, lr, sp, asr #1
    75b8:	00d000cf 	sbcseq	r0, r0, pc, asr #1
    75bc:	00d200d1 	ldrsbeq	r0, [r2], #1
    75c0:	00d500d3 	ldrsbeq	r0, [r5], #3
    75c4:	00d700d6 	ldrsbeq	r0, [r7], #6
    75c8:	00d900d8 	ldrsbeq	r0, [r9], #8
    75cc:	00db00da 	ldrsbeq	r0, [fp], #10
    75d0:	00de00dc 	ldrsbeq	r0, [lr], #12
    75d4:	00e000df 	ldrdeq	r0, [r0], #15	@ <UNPREDICTABLE>
    75d8:	00e200e1 	rsceq	r0, r2, r1, ror #1
    75dc:	00e400e3 	rsceq	r0, r4, r3, ror #1
    75e0:	00e700e5 	rsceq	r0, r7, r5, ror #1
    75e4:	00e900e8 	rsceq	r0, r9, r8, ror #1
    75e8:	00eb00ea 	rsceq	r0, fp, sl, ror #1
    75ec:	00ed00ec 	rsceq	r0, sp, ip, ror #1
    75f0:	00f000ef 	rscseq	r0, r0, pc, ror #1
    75f4:	00f200f1 	ldrshteq	r0, [r2], #1
    75f8:	00f400f3 	ldrshteq	r0, [r4], #3
    75fc:	00f700f5 	ldrshteq	r0, [r7], #5
    7600:	00f900f8 	ldrshteq	r0, [r9], #8
    7604:	00fb00fa 	ldrshteq	r0, [fp], #10
    7608:	00fd00fc 	ldrshteq	r0, [sp], #12
    760c:	010000ff 	strdeq	r0, [r0, -pc]
    7610:	01020101 	tsteq	r2, r1, lsl #2
    7614:	01040103 	tsteq	r4, r3, lsl #2
    7618:	01070106 	tsteq	r7, r6, lsl #2
    761c:	01090108 	tsteq	r9, r8, lsl #2
    7620:	010b010a 	tsteq	fp, sl, lsl #2
    7624:	010e010c 	tsteq	lr, ip, lsl #2
    7628:	0110010f 	tsteq	r0, pc, lsl #2
    762c:	01120111 	tsteq	r2, r1, lsl r1
    7630:	01150114 	tsteq	r5, r4, lsl r1
    7634:	01170116 	tsteq	r7, r6, lsl r1
    7638:	01190118 	tsteq	r9, r8, lsl r1
    763c:	011c011b 	tsteq	ip, fp, lsl r1
    7640:	011e011d 	tsteq	lr, sp, lsl r1
    7644:	0120011f 			@ <UNDEFINED> instruction: 0x0120011f
    7648:	01230122 			@ <UNDEFINED> instruction: 0x01230122
    764c:	01250124 			@ <UNDEFINED> instruction: 0x01250124
    7650:	01280126 			@ <UNDEFINED> instruction: 0x01280126
    7654:	012a0129 			@ <UNDEFINED> instruction: 0x012a0129
    7658:	012c012b 			@ <UNDEFINED> instruction: 0x012c012b
    765c:	012f012e 			@ <UNDEFINED> instruction: 0x012f012e
    7660:	01310130 	teqeq	r1, r0, lsr r1
    7664:	01340132 	teqeq	r4, r2, lsr r1
    7668:	01360135 	teqeq	r6, r5, lsr r1
    766c:	01380137 	teqeq	r8, r7, lsr r1
    7670:	013b013a 	teqeq	fp, sl, lsr r1
    7674:	013d013c 	teqeq	sp, ip, lsr r1
    7678:	0140013e 	cmpeq	r0, lr, lsr r1
    767c:	01420141 	cmpeq	r2, r1, asr #2
    7680:	01440143 	cmpeq	r4, r3, asr #2
    7684:	01470146 	cmpeq	r7, r6, asr #2
    7688:	01490148 	cmpeq	r9, r8, asr #2
    768c:	014c014b 	cmpeq	ip, fp, asr #2
    7690:	014e014d 	cmpeq	lr, sp, asr #2
    7694:	0151014f 	cmpeq	r1, pc, asr #2
    7698:	01530152 	cmpeq	r3, r2, asr r1
    769c:	01560154 	cmpeq	r6, r4, asr r1
    76a0:	01580157 	cmpeq	r8, r7, asr r1
    76a4:	015b0159 	cmpeq	fp, r9, asr r1
    76a8:	015d015c 	cmpeq	sp, ip, asr r1
    76ac:	0160015e 	cmneq	r0, lr, asr r1
    76b0:	01620161 	cmneq	r2, r1, ror #2
    76b4:	01650163 	cmneq	r5, r3, ror #2
    76b8:	01670166 	cmneq	r7, r6, ror #2
